---
triple:          'arm64-apple-darwin'
binary-path:     p02_laberinto
relocations:
  - { offsetInCU: 0x3CBA, offset: 0x3CBA, size: 0x8, addend: 0x0, symName: __ZNSt3__124__put_character_sequenceB8ue170006IcNS_11char_traitsIcEEEERNS_13basic_ostreamIT_T0_EES7_PKS4_m, symObjAddr: 0x2000, symBinAddr: 0x100003294, symSize: 0x1F4 }
  - { offsetInCU: 0x7925, offset: 0x7925, size: 0x8, addend: 0x0, symName: __ZNSt3__1lsB8ue170006INS_11char_traitsIcEEEERNS_13basic_ostreamIcT_EES6_PKc, symObjAddr: 0xA3C, symBinAddr: 0x100001CD0, symSize: 0x48 }
  - { offsetInCU: 0x796B, offset: 0x796B, size: 0x8, addend: 0x0, symName: __ZNSt3__14endlB8ue170006IcNS_11char_traitsIcEEEERNS_13basic_ostreamIT_T0_EES7_, symObjAddr: 0xAB0, symBinAddr: 0x100001D44, symSize: 0x58 }
  - { offsetInCU: 0x88BD, offset: 0x88BD, size: 0x8, addend: 0x0, symName: __ZNSt3__17getlineB8ue170006IcNS_11char_traitsIcEENS_9allocatorIcEEEERNS_13basic_istreamIT_T0_EES9_RNS_12basic_stringIS6_S7_T1_EE, symObjAddr: 0xEB0, symBinAddr: 0x100002144, symSize: 0x5C }
  - { offsetInCU: 0x8D5A, offset: 0x8D5A, size: 0x8, addend: 0x0, symName: __ZNSt3__19make_pairB8ue170006IRiS1_EENS_4pairINS_18__unwrap_ref_decayIT_E4typeENS3_IT0_E4typeEEEOS4_OS7_, symObjAddr: 0x1338, symBinAddr: 0x1000025CC, symSize: 0x34 }
  - { offsetInCU: 0x8FC3, offset: 0x8FC3, size: 0x8, addend: 0x0, symName: __ZNSt3__1lsB8ue170006IcNS_11char_traitsIcEENS_9allocatorIcEEEERNS_13basic_ostreamIT_T0_EES9_RKNS_12basic_stringIS6_S7_T1_EE, symObjAddr: 0x13AC, symBinAddr: 0x100002640, symSize: 0x4C }
  - { offsetInCU: 0x9031, offset: 0x9031, size: 0x8, addend: 0x0, symName: __ZNSt3__112__to_addressB8ue170006I4NodoEEPT_S3_, symObjAddr: 0x1BD8, symBinAddr: 0x100002E6C, symSize: 0x14 }
  - { offsetInCU: 0x9066, offset: 0x9066, size: 0x8, addend: 0x0, symName: __ZNSt3__130__libcpp_is_constant_evaluatedB8ue170006Ev, symObjAddr: 0x1CBC, symBinAddr: 0x100002F50, symSize: 0xC }
  - { offsetInCU: 0x9083, offset: 0x9083, size: 0x8, addend: 0x0, symName: __ZNSt3__119__libcpp_deallocateB8ue170006EPvmm, symObjAddr: 0x1CC8, symBinAddr: 0x100002F5C, symSize: 0x30 }
  - { offsetInCU: 0x90CB, offset: 0x90CB, size: 0x8, addend: 0x0, symName: __ZNSt3__127__do_deallocate_handle_sizeB8ue170006IJEEEvPvmDpT_, symObjAddr: 0x1CF8, symBinAddr: 0x100002F8C, symSize: 0x28 }
  - { offsetInCU: 0x9109, offset: 0x9109, size: 0x8, addend: 0x0, symName: __ZNSt3__124__libcpp_operator_deleteB8ue170006IJPvEEEvDpT_, symObjAddr: 0x1D20, symBinAddr: 0x100002FB4, symSize: 0x24 }
  - { offsetInCU: 0x913E, offset: 0x913E, size: 0x8, addend: 0x0, symName: __ZNSt3__116__pad_and_outputB8ue170006IcNS_11char_traitsIcEEEENS_19ostreambuf_iteratorIT_T0_EES6_PKS4_S8_S8_RNS_8ios_baseES4_, symObjAddr: 0x2258, symBinAddr: 0x1000034EC, symSize: 0x248 }
  - { offsetInCU: 0x920D, offset: 0x920D, size: 0x8, addend: 0x0, symName: __ZNSt3__112__to_addressB8ue170006IKcEEPT_S3_, symObjAddr: 0x27C8, symBinAddr: 0x100003A5C, symSize: 0x14 }
  - { offsetInCU: 0x9275, offset: 0x9275, size: 0x8, addend: 0x0, symName: __ZNSt3__19use_facetB8ue170006INS_5ctypeIcEEEERKT_RKNS_6localeE, symObjAddr: 0x2AA0, symBinAddr: 0x100003D34, symSize: 0x2C }
  - { offsetInCU: 0x9742, offset: 0x9742, size: 0x8, addend: 0x0, symName: __ZNSt3__118__constexpr_strlenB8ue170006EPKc, symObjAddr: 0x2B38, symBinAddr: 0x100003DCC, symSize: 0x24 }
  - { offsetInCU: 0x976E, offset: 0x976E, size: 0x8, addend: 0x0, symName: __ZNSt3__117__libcpp_allocateB8ue170006Emm, symObjAddr: 0x30EC, symBinAddr: 0x100004380, symSize: 0x28 }
  - { offsetInCU: 0x97AB, offset: 0x97AB, size: 0x8, addend: 0x0, symName: __ZNSt3__121__libcpp_operator_newB8ue170006IJmEEEPvDpT_, symObjAddr: 0x3128, symBinAddr: 0x1000043BC, symSize: 0x24 }
  - { offsetInCU: 0x97E4, offset: 0x97E4, size: 0x8, addend: 0x0, symName: __ZNSt3__112__to_addressB8ue170006INS_12basic_stringIcNS_11char_traitsIcEENS_9allocatorIcEEEEEEPT_S8_, symObjAddr: 0x3650, symBinAddr: 0x1000048E4, symSize: 0x14 }
  - { offsetInCU: 0x9819, offset: 0x9819, size: 0x8, addend: 0x0, symName: __ZNSt3__17getlineB8ue170006IcNS_11char_traitsIcEENS_9allocatorIcEEEERNS_13basic_istreamIT_T0_EES9_RNS_12basic_stringIS6_S7_T1_EES6_, symObjAddr: 0x3808, symBinAddr: 0x100004A9C, symSize: 0x238 }
  - { offsetInCU: 0x9B0C, offset: 0x9B0C, size: 0x8, addend: 0x0, symName: __ZNSt3__13maxB8ue170006ImEERKT_S3_S3_, symObjAddr: 0x4424, symBinAddr: 0x1000056B8, symSize: 0x2C }
  - { offsetInCU: 0x9B4F, offset: 0x9B4F, size: 0x8, addend: 0x0, symName: __ZNSt3__13minB8ue170006ImEERKT_S3_S3_, symObjAddr: 0x4450, symBinAddr: 0x1000056E4, symSize: 0x2C }
  - { offsetInCU: 0x9D93, offset: 0x9D93, size: 0x8, addend: 0x0, symName: __ZNSt3__13minB8ue170006ImNS_6__lessIvvEEEERKT_S5_S5_T0_, symObjAddr: 0x44DC, symBinAddr: 0x100005770, symSize: 0x54 }
  - { offsetInCU: 0x9E32, offset: 0x9E32, size: 0x8, addend: 0x0, symName: __ZNSt3__120__throw_length_errorB8ue170006EPKc, symObjAddr: 0x45BC, symBinAddr: 0x100005850, symSize: 0x64 }
  - { offsetInCU: 0x9E5C, offset: 0x9E5C, size: 0x8, addend: 0x0, symName: __ZNSt3__13maxB8ue170006ImNS_6__lessIvvEEEERKT_S5_S5_T0_, symObjAddr: 0x46A0, symBinAddr: 0x100005934, symSize: 0x54 }
  - { offsetInCU: 0x9EB6, offset: 0x9EB6, size: 0x8, addend: 0x0, symName: __ZNSt3__119__allocate_at_leastB8ue170006INS_9allocatorINS_12basic_stringIcNS_11char_traitsIcEENS1_IcEEEEEEEENS_19__allocation_resultINS_16allocator_traitsIT_E7pointerEEERSA_m, symObjAddr: 0x4810, symBinAddr: 0x100005AA4, symSize: 0x40 }
  - { offsetInCU: 0x9EF9, offset: 0x9EF9, size: 0x8, addend: 0x0, symName: __ZNSt3__142__uninitialized_allocator_move_if_noexceptB8ue170006INS_9allocatorINS_12basic_stringIcNS_11char_traitsIcEENS1_IcEEEEEENS_16reverse_iteratorIPS6_EESA_SA_EET2_RT_T0_T1_SB_, symObjAddr: 0x49F8, symBinAddr: 0x100005C8C, symSize: 0x134 }
  - { offsetInCU: 0x9F99, offset: 0x9F99, size: 0x8, addend: 0x0, symName: __ZNSt3__14swapB8ue170006IPNS_12basic_stringIcNS_11char_traitsIcEENS_9allocatorIcEEEEEEvRT_S9_, symObjAddr: 0x4B78, symBinAddr: 0x100005E0C, symSize: 0x3C }
  - { offsetInCU: 0x9FEA, offset: 0x9FEA, size: 0x8, addend: 0x0, symName: __ZNSt3__122__make_exception_guardB8ue170006INS_29_AllocatorDestroyRangeReverseINS_9allocatorINS_12basic_stringIcNS_11char_traitsIcEENS2_IcEEEEEENS_16reverse_iteratorIPS7_EEEEEENS_28__exception_guard_exceptionsIT_EESE_, symObjAddr: 0x4C7C, symBinAddr: 0x100005F10, symSize: 0x4C }
  - { offsetInCU: 0xA020, offset: 0xA020, size: 0x8, addend: 0x0, symName: __ZNSt3__1neB8ue170006IPNS_12basic_stringIcNS_11char_traitsIcEENS_9allocatorIcEEEES7_EEbRKNS_16reverse_iteratorIT_EERKNS8_IT0_EE, symObjAddr: 0x4D0C, symBinAddr: 0x100005FA0, symSize: 0x48 }
  - { offsetInCU: 0xA06C, offset: 0xA06C, size: 0x8, addend: 0x0, symName: __ZNSt3__112__to_addressB8ue170006INS_16reverse_iteratorIPNS_12basic_stringIcNS_11char_traitsIcEENS_9allocatorIcEEEEEEvEEu7__decayIDTclsr19__to_address_helperIT_EE6__callclsr3stdE7declvalIRKSA_EEEEESC_, symObjAddr: 0x4D54, symBinAddr: 0x100005FE8, symSize: 0x24 }
  - { offsetInCU: 0xA0CB, offset: 0xA0CB, size: 0x8, addend: 0x0, symName: __ZNSt3__119__allocator_destroyB8ue170006INS_9allocatorINS_12basic_stringIcNS_11char_traitsIcEENS1_IcEEEEEENS_16reverse_iteratorINS8_IPS6_EEEESB_EEvRT_T0_T1_, symObjAddr: 0x5010, symBinAddr: 0x1000062A4, symSize: 0x70 }
  - { offsetInCU: 0xA130, offset: 0xA130, size: 0x8, addend: 0x0, symName: __ZNSt3__1neB8ue170006INS_16reverse_iteratorIPNS_12basic_stringIcNS_11char_traitsIcEENS_9allocatorIcEEEEEES9_EEbRKNS1_IT_EERKNS1_IT0_EE, symObjAddr: 0x50BC, symBinAddr: 0x100006350, symSize: 0x60 }
  - { offsetInCU: 0xA17C, offset: 0xA17C, size: 0x8, addend: 0x0, symName: __ZNSt3__112__to_addressB8ue170006INS_16reverse_iteratorINS1_IPNS_12basic_stringIcNS_11char_traitsIcEENS_9allocatorIcEEEEEEEEvEEu7__decayIDTclsr19__to_address_helperIT_EE6__callclsr3stdE7declvalIRKSB_EEEEESD_, symObjAddr: 0x511C, symBinAddr: 0x1000063B0, symSize: 0x24 }
  - { offsetInCU: 0xA1DB, offset: 0xA1DB, size: 0x8, addend: 0x0, symName: __ZNSt3__1miB8ue170006IPKNS_12basic_stringIcNS_11char_traitsIcEENS_9allocatorIcEEEES8_EENS_11__wrap_iterIT_E15difference_typeERKSB_RKNS9_IT0_EE, symObjAddr: 0x55C0, symBinAddr: 0x100006854, symSize: 0x48 }
  - { offsetInCU: 0xA227, offset: 0xA227, size: 0x8, addend: 0x0, symName: __ZNSt3__14moveB8ue170006IPNS_12basic_stringIcNS_11char_traitsIcEENS_9allocatorIcEEEES7_EET0_T_S9_S8_, symObjAddr: 0x5680, symBinAddr: 0x100006914, symSize: 0x40 }
  - { offsetInCU: 0xA281, offset: 0xA281, size: 0x8, addend: 0x0, symName: __ZNSt3__16__moveB8ue170006INS_17_ClassicAlgPolicyEPNS_12basic_stringIcNS_11char_traitsIcEENS_9allocatorIcEEEES8_S8_EENS_4pairIT0_T2_EESA_T1_SB_, symObjAddr: 0x585C, symBinAddr: 0x100006AF0, symSize: 0x44 }
  - { offsetInCU: 0xA2ED, offset: 0xA2ED, size: 0x8, addend: 0x0, symName: __ZNSt3__123__dispatch_copy_or_moveB8ue170006INS_17_ClassicAlgPolicyENS_11__move_loopIS1_EENS_14__move_trivialEPNS_12basic_stringIcNS_11char_traitsIcEENS_9allocatorIcEEEESB_SB_EENS_4pairIT2_T4_EESD_T3_SE_, symObjAddr: 0x58A0, symBinAddr: 0x100006B34, symSize: 0x44 }
  - { offsetInCU: 0xA36B, offset: 0xA36B, size: 0x8, addend: 0x0, symName: __ZNSt3__121__unwrap_and_dispatchB8ue170006INS_10__overloadINS_11__move_loopINS_17_ClassicAlgPolicyEEENS_14__move_trivialEEEPNS_12basic_stringIcNS_11char_traitsIcEENS_9allocatorIcEEEESD_SD_Li0EEENS_4pairIT0_T2_EESF_T1_SG_, symObjAddr: 0x58E4, symBinAddr: 0x100006B78, symSize: 0xB4 }
  - { offsetInCU: 0xA3F9, offset: 0xA3F9, size: 0x8, addend: 0x0, symName: __ZNSt3__114__unwrap_rangeB8ue170006IPNS_12basic_stringIcNS_11char_traitsIcEENS_9allocatorIcEEEES7_EENS_4pairIT0_S9_EET_SB_, symObjAddr: 0x5998, symBinAddr: 0x100006C2C, symSize: 0x60 }
  - { offsetInCU: 0xA54D, offset: 0xA54D, size: 0x8, addend: 0x0, symName: __ZNSt3__113__unwrap_iterB8ue170006IPNS_12basic_stringIcNS_11char_traitsIcEENS_9allocatorIcEEEENS_18__unwrap_iter_implIS7_Lb1EEELi0EEEDTclsrT0_8__unwrapclsr3stdE7declvalIT_EEEESB_, symObjAddr: 0x5A88, symBinAddr: 0x100006D1C, symSize: 0x24 }
  - { offsetInCU: 0xA591, offset: 0xA591, size: 0x8, addend: 0x0, symName: __ZNSt3__19make_pairB8ue170006IPNS_12basic_stringIcNS_11char_traitsIcEENS_9allocatorIcEEEES7_EENS_4pairINS_18__unwrap_ref_decayIT_E4typeENS9_IT0_E4typeEEEOSA_OSD_, symObjAddr: 0x5AAC, symBinAddr: 0x100006D40, symSize: 0x38 }
  - { offsetInCU: 0xA5E0, offset: 0xA5E0, size: 0x8, addend: 0x0, symName: __ZNSt3__114__rewrap_rangeB8ue170006IPNS_12basic_stringIcNS_11char_traitsIcEENS_9allocatorIcEEEES7_EET_S8_T0_, symObjAddr: 0x5AE4, symBinAddr: 0x100006D78, symSize: 0x2C }
  - { offsetInCU: 0xA62C, offset: 0xA62C, size: 0x8, addend: 0x0, symName: __ZNSt3__113__rewrap_iterB8ue170006IPNS_12basic_stringIcNS_11char_traitsIcEENS_9allocatorIcEEEES7_NS_18__unwrap_iter_implIS7_Lb1EEEEET_SA_T0_, symObjAddr: 0x5B10, symBinAddr: 0x100006DA4, symSize: 0x50 }
  - { offsetInCU: 0xA932, offset: 0xA932, size: 0x8, addend: 0x0, symName: __ZSt28__throw_bad_array_new_lengthB8ue170006v, symObjAddr: 0x30B8, symBinAddr: 0x10000434C, symSize: 0x34 }
  - { offsetInCU: 0xB29F, offset: 0xB29F, size: 0x8, addend: 0x0, symName: __ZNSt3__16vectorINS_12basic_stringIcNS_11char_traitsIcEENS_9allocatorIcEEEENS4_IS6_EEE26__swap_out_circular_bufferERNS_14__split_bufferIS6_RS7_EE, symObjAddr: 0x4258, symBinAddr: 0x1000054EC, symSize: 0x110 }
  - { offsetInCU: 0xD655, offset: 0xD655, size: 0x8, addend: 0x0, symName: _main, symObjAddr: 0x0, symBinAddr: 0x100001294, symSize: 0xA3C }
  - { offsetInCU: 0xD7ED, offset: 0xD7ED, size: 0x8, addend: 0x0, symName: __ZNSt3__113basic_ostreamIcNS_11char_traitsIcEEElsB8ue170006EPFRS3_S4_E, symObjAddr: 0xA84, symBinAddr: 0x100001D18, symSize: 0x2C }
  - { offsetInCU: 0xD941, offset: 0xD941, size: 0x8, addend: 0x0, symName: __ZNSt3__114basic_ifstreamIcNS_11char_traitsIcEEEC1EPKcj, symObjAddr: 0xB08, symBinAddr: 0x100001D9C, symSize: 0x17C }
  - { offsetInCU: 0xD9A3, offset: 0xD9A3, size: 0x8, addend: 0x0, symName: __ZNSt3__114basic_ofstreamIcNS_11char_traitsIcEEEC1EPKcj, symObjAddr: 0xC84, symBinAddr: 0x100001F18, symSize: 0x17C }
  - { offsetInCU: 0xD9EB, offset: 0xD9EB, size: 0x8, addend: 0x0, symName: __ZNKSt3__114basic_ifstreamIcNS_11char_traitsIcEEE7is_openEv, symObjAddr: 0xE00, symBinAddr: 0x100002094, symSize: 0x2C }
  - { offsetInCU: 0xDA11, offset: 0xDA11, size: 0x8, addend: 0x0, symName: __ZNKSt3__114basic_ofstreamIcNS_11char_traitsIcEEE7is_openEv, symObjAddr: 0xE2C, symBinAddr: 0x1000020C0, symSize: 0x2C }
  - { offsetInCU: 0xDA38, offset: 0xDA38, size: 0x8, addend: 0x0, symName: __ZNSt3__112basic_stringIcNS_11char_traitsIcEENS_9allocatorIcEEEC1B8ue170006Ev, symObjAddr: 0xE58, symBinAddr: 0x1000020EC, symSize: 0x2C }
  - { offsetInCU: 0xDA61, offset: 0xDA61, size: 0x8, addend: 0x0, symName: __ZNSt3__16vectorINS_12basic_stringIcNS_11char_traitsIcEENS_9allocatorIcEEEENS4_IS6_EEEC1B8ue170006Ev, symObjAddr: 0xE84, symBinAddr: 0x100002118, symSize: 0x2C }
  - { offsetInCU: 0xDA8A, offset: 0xDA8A, size: 0x8, addend: 0x0, symName: __ZNKSt3__19basic_iosIcNS_11char_traitsIcEEEcvPvB8ue170006Ev, symObjAddr: 0xF0C, symBinAddr: 0x1000021A0, symSize: 0x4C }
  - { offsetInCU: 0xDAAF, offset: 0xDAAF, size: 0x8, addend: 0x0, symName: __ZNKSt3__112basic_stringIcNS_11char_traitsIcEENS_9allocatorIcEEE4sizeB8ue170006Ev, symObjAddr: 0xF58, symBinAddr: 0x1000021EC, symSize: 0x54 }
  - { offsetInCU: 0xDAD4, offset: 0xDAD4, size: 0x8, addend: 0x0, symName: __ZNSt3__112basic_stringIcNS_11char_traitsIcEENS_9allocatorIcEEEixB8ue170006Em, symObjAddr: 0xFAC, symBinAddr: 0x100002240, symSize: 0x30 }
  - { offsetInCU: 0xDB08, offset: 0xDB08, size: 0x8, addend: 0x0, symName: __ZNSt3__112basic_stringIcNS_11char_traitsIcEENS_9allocatorIcEEEpLB8ue170006Ec, symObjAddr: 0xFDC, symBinAddr: 0x100002270, symSize: 0x34 }
  - { offsetInCU: 0xDB3B, offset: 0xDB3B, size: 0x8, addend: 0x0, symName: __ZNSt3__16vectorINS_12basic_stringIcNS_11char_traitsIcEENS_9allocatorIcEEEENS4_IS6_EEE9push_backB8ue170006ERKS6_, symObjAddr: 0x1010, symBinAddr: 0x1000022A4, symSize: 0x6C }
  - { offsetInCU: 0xDB70, offset: 0xDB70, size: 0x8, addend: 0x0, symName: __ZNSt3__112basic_stringIcNS_11char_traitsIcEENS_9allocatorIcEEE5clearB8ue170006Ev, symObjAddr: 0x107C, symBinAddr: 0x100002310, symSize: 0x78 }
  - { offsetInCU: 0xDB97, offset: 0xDB97, size: 0x8, addend: 0x0, symName: __ZNSt3__16vectorINS_12basic_stringIcNS_11char_traitsIcEENS_9allocatorIcEEEENS4_IS6_EEEixB8ue170006Em, symObjAddr: 0x10F4, symBinAddr: 0x100002388, symSize: 0x2C }
  - { offsetInCU: 0xDBCC, offset: 0xDBCC, size: 0x8, addend: 0x0, symName: __ZNSt3__16vectorINS_12basic_stringIcNS_11char_traitsIcEENS_9allocatorIcEEEENS4_IS6_EEE5eraseB8ue170006ENS_11__wrap_iterIPKS6_EE, symObjAddr: 0x1120, symBinAddr: 0x1000023B4, symSize: 0x9C }
  - { offsetInCU: 0xDC1F, offset: 0xDC1F, size: 0x8, addend: 0x0, symName: __ZNSt3__16vectorINS_12basic_stringIcNS_11char_traitsIcEENS_9allocatorIcEEEENS4_IS6_EEE5beginB8ue170006Ev, symObjAddr: 0x11BC, symBinAddr: 0x100002450, symSize: 0x30 }
  - { offsetInCU: 0xDC50, offset: 0xDC50, size: 0x8, addend: 0x0, symName: __ZNSt3__111__wrap_iterIPKNS_12basic_stringIcNS_11char_traitsIcEENS_9allocatorIcEEEEEC1B8ue170006IPS6_EERKNS0_IT_EEPNS_9enable_ifIXsr14is_convertibleISC_S8_EE5valueEvE4typeE, symObjAddr: 0x11EC, symBinAddr: 0x100002480, symSize: 0x3C }
  - { offsetInCU: 0xDCFA, offset: 0xDCFA, size: 0x8, addend: 0x0, symName: __ZNSt3__118basic_stringstreamIcNS_11char_traitsIcEENS_9allocatorIcEEEC1B8ue170006Ev, symObjAddr: 0x1228, symBinAddr: 0x1000024BC, symSize: 0x110 }
  - { offsetInCU: 0xDF01, offset: 0xDF01, size: 0x8, addend: 0x0, symName: __ZN9MatrizLab28get_contador_nodos_generadosEv, symObjAddr: 0x136C, symBinAddr: 0x100002600, symSize: 0x18 }
  - { offsetInCU: 0xDF26, offset: 0xDF26, size: 0x8, addend: 0x0, symName: __ZN9MatrizLab23get_nodos_cerrados_sizeEv, symObjAddr: 0x1384, symBinAddr: 0x100002618, symSize: 0x28 }
  - { offsetInCU: 0xDF4B, offset: 0xDF4B, size: 0x8, addend: 0x0, symName: __ZNKSt3__118basic_stringstreamIcNS_11char_traitsIcEENS_9allocatorIcEEE3strB8ue170006Ev, symObjAddr: 0x13F8, symBinAddr: 0x10000268C, symSize: 0x30 }
  - { offsetInCU: 0xDF75, offset: 0xDF75, size: 0x8, addend: 0x0, symName: __ZNSt3__118basic_stringstreamIcNS_11char_traitsIcEENS_9allocatorIcEEED1Ev, symObjAddr: 0x1434, symBinAddr: 0x1000026C8, symSize: 0x70 }
  - { offsetInCU: 0xDFA1, offset: 0xDFA1, size: 0x8, addend: 0x0, symName: __ZN9MatrizLabD1Ev, symObjAddr: 0x14A4, symBinAddr: 0x100002738, symSize: 0x2C }
  - { offsetInCU: 0xDFCC, offset: 0xDFCC, size: 0x8, addend: 0x0, symName: __ZNSt3__16vectorINS_12basic_stringIcNS_11char_traitsIcEENS_9allocatorIcEEEENS4_IS6_EEED1B8ue170006Ev, symObjAddr: 0x14D0, symBinAddr: 0x100002764, symSize: 0x2C }
  - { offsetInCU: 0xDFFA, offset: 0xDFFA, size: 0x8, addend: 0x0, symName: __ZNSt3__114basic_ofstreamIcNS_11char_traitsIcEEED1Ev, symObjAddr: 0x14FC, symBinAddr: 0x100002790, symSize: 0x70 }
  - { offsetInCU: 0xE02B, offset: 0xE02B, size: 0x8, addend: 0x0, symName: __ZNSt3__114basic_ifstreamIcNS_11char_traitsIcEEED1Ev, symObjAddr: 0x156C, symBinAddr: 0x100002800, symSize: 0x70 }
  - { offsetInCU: 0xE057, offset: 0xE057, size: 0x8, addend: 0x0, symName: __ZNKSt3__16vectorI4NodoNS_9allocatorIS1_EEE4sizeB8ue170006Ev, symObjAddr: 0x15DC, symBinAddr: 0x100002870, symSize: 0x28 }
  - { offsetInCU: 0xE07C, offset: 0xE07C, size: 0x8, addend: 0x0, symName: __ZNSt3__118basic_stringstreamIcNS_11char_traitsIcEENS_9allocatorIcEEED2Ev, symObjAddr: 0x1604, symBinAddr: 0x100002898, symSize: 0xA4 }
  - { offsetInCU: 0xE0B4, offset: 0xE0B4, size: 0x8, addend: 0x0, symName: __ZThn16_NSt3__118basic_stringstreamIcNS_11char_traitsIcEENS_9allocatorIcEEED1Ev, symObjAddr: 0x16A8, symBinAddr: 0x10000293C, symSize: 0x1C }
  - { offsetInCU: 0xE0CB, offset: 0xE0CB, size: 0x8, addend: 0x0, symName: __ZTv0_n24_NSt3__118basic_stringstreamIcNS_11char_traitsIcEENS_9allocatorIcEEED1Ev, symObjAddr: 0x16C4, symBinAddr: 0x100002958, symSize: 0x28 }
  - { offsetInCU: 0xE0E7, offset: 0xE0E7, size: 0x8, addend: 0x0, symName: __ZNSt3__115basic_stringbufIcNS_11char_traitsIcEENS_9allocatorIcEEED1Ev, symObjAddr: 0x16EC, symBinAddr: 0x100002980, symSize: 0x2C }
  - { offsetInCU: 0xE113, offset: 0xE113, size: 0x8, addend: 0x0, symName: __ZNSt3__115basic_stringbufIcNS_11char_traitsIcEENS_9allocatorIcEEED2Ev, symObjAddr: 0x1718, symBinAddr: 0x1000029AC, symSize: 0x78 }
  - { offsetInCU: 0xE13F, offset: 0xE13F, size: 0x8, addend: 0x0, symName: __ZN9MatrizLabD2Ev, symObjAddr: 0x1790, symBinAddr: 0x100002A24, symSize: 0x6C }
  - { offsetInCU: 0xE16A, offset: 0xE16A, size: 0x8, addend: 0x0, symName: __ZNSt3__16vectorI4NodoNS_9allocatorIS1_EEED1B8ue170006Ev, symObjAddr: 0x17FC, symBinAddr: 0x100002A90, symSize: 0x2C }
  - { offsetInCU: 0xE193, offset: 0xE193, size: 0x8, addend: 0x0, symName: __ZNSt3__114priority_queueI4NodoNS_6vectorIS1_NS_9allocatorIS1_EEEENS_7greaterIS1_EEED1Ev, symObjAddr: 0x1828, symBinAddr: 0x100002ABC, symSize: 0x2C }
  - { offsetInCU: 0xE1BF, offset: 0xE1BF, size: 0x8, addend: 0x0, symName: __ZNSt3__16vectorI4NodoNS_9allocatorIS1_EEED2B8ue170006Ev, symObjAddr: 0x1854, symBinAddr: 0x100002AE8, symSize: 0x3C }
  - { offsetInCU: 0xE1E8, offset: 0xE1E8, size: 0x8, addend: 0x0, symName: __ZNSt3__16vectorI4NodoNS_9allocatorIS1_EEE16__destroy_vectorC1B8ue170006ERS4_, symObjAddr: 0x1890, symBinAddr: 0x100002B24, symSize: 0x34 }
  - { offsetInCU: 0xE220, offset: 0xE220, size: 0x8, addend: 0x0, symName: __ZNSt3__16vectorI4NodoNS_9allocatorIS1_EEE16__destroy_vectorclB8ue170006Ev, symObjAddr: 0x18C4, symBinAddr: 0x100002B58, symSize: 0x90 }
  - { offsetInCU: 0xE245, offset: 0xE245, size: 0x8, addend: 0x0, symName: __ZNSt3__16vectorI4NodoNS_9allocatorIS1_EEE16__destroy_vectorC2B8ue170006ERS4_, symObjAddr: 0x1954, symBinAddr: 0x100002BE8, symSize: 0x20 }
  - { offsetInCU: 0xE27D, offset: 0xE27D, size: 0x8, addend: 0x0, symName: __ZNSt3__16vectorI4NodoNS_9allocatorIS1_EEE7__clearB8ue170006Ev, symObjAddr: 0x1974, symBinAddr: 0x100002C08, symSize: 0x28 }
  - { offsetInCU: 0xE2A2, offset: 0xE2A2, size: 0x8, addend: 0x0, symName: __ZNKSt3__16vectorI4NodoNS_9allocatorIS1_EEE17__annotate_deleteB8ue170006Ev, symObjAddr: 0x199C, symBinAddr: 0x100002C30, symSize: 0xD4 }
  - { offsetInCU: 0xE2C7, offset: 0xE2C7, size: 0x8, addend: 0x0, symName: __ZNSt3__116allocator_traitsINS_9allocatorI4NodoEEE10deallocateB8ue170006ERS3_PS2_m, symObjAddr: 0x1A70, symBinAddr: 0x100002D04, symSize: 0x34 }
  - { offsetInCU: 0xE309, offset: 0xE309, size: 0x8, addend: 0x0, symName: __ZNSt3__16vectorI4NodoNS_9allocatorIS1_EEE7__allocB8ue170006Ev, symObjAddr: 0x1AA4, symBinAddr: 0x100002D38, symSize: 0x28 }
  - { offsetInCU: 0xE32E, offset: 0xE32E, size: 0x8, addend: 0x0, symName: __ZNKSt3__16vectorI4NodoNS_9allocatorIS1_EEE8capacityB8ue170006Ev, symObjAddr: 0x1ACC, symBinAddr: 0x100002D60, symSize: 0x40 }
  - { offsetInCU: 0xE353, offset: 0xE353, size: 0x8, addend: 0x0, symName: __ZNSt3__16vectorI4NodoNS_9allocatorIS1_EEE22__base_destruct_at_endB8ue170006EPS1_, symObjAddr: 0x1B0C, symBinAddr: 0x100002DA0, symSize: 0xA0 }
  - { offsetInCU: 0xE396, offset: 0xE396, size: 0x8, addend: 0x0, symName: __ZNSt3__116allocator_traitsINS_9allocatorI4NodoEEE7destroyB8ue170006IS2_vEEvRS3_PT_, symObjAddr: 0x1BAC, symBinAddr: 0x100002E40, symSize: 0x2C }
  - { offsetInCU: 0xE3D3, offset: 0xE3D3, size: 0x8, addend: 0x0, symName: __ZNSt3__19allocatorI4NodoE7destroyB8ue170006EPS1_, symObjAddr: 0x1BEC, symBinAddr: 0x100002E80, symSize: 0x14 }
  - { offsetInCU: 0xE406, offset: 0xE406, size: 0x8, addend: 0x0, symName: __ZNKSt3__16vectorI4NodoNS_9allocatorIS1_EEE31__annotate_contiguous_containerB8ue170006EPKvS6_S6_S6_, symObjAddr: 0x1C00, symBinAddr: 0x100002E94, symSize: 0x20 }
  - { offsetInCU: 0xE45B, offset: 0xE45B, size: 0x8, addend: 0x0, symName: __ZNKSt3__16vectorI4NodoNS_9allocatorIS1_EEE4dataB8ue170006Ev, symObjAddr: 0x1C20, symBinAddr: 0x100002EB4, symSize: 0x28 }
  - { offsetInCU: 0xE480, offset: 0xE480, size: 0x8, addend: 0x0, symName: __ZNSt3__19allocatorI4NodoE10deallocateB8ue170006EPS1_m, symObjAddr: 0x1C48, symBinAddr: 0x100002EDC, symSize: 0x74 }
  - { offsetInCU: 0xE4C1, offset: 0xE4C1, size: 0x8, addend: 0x0, symName: __ZNSt3__117__compressed_pairIP4NodoNS_9allocatorIS1_EEE6secondB8ue170006Ev, symObjAddr: 0x1D44, symBinAddr: 0x100002FD8, symSize: 0x24 }
  - { offsetInCU: 0xE4E6, offset: 0xE4E6, size: 0x8, addend: 0x0, symName: __ZNSt3__122__compressed_pair_elemINS_9allocatorI4NodoEELi1ELb1EE5__getB8ue170006Ev, symObjAddr: 0x1D68, symBinAddr: 0x100002FFC, symSize: 0x14 }
  - { offsetInCU: 0xE50B, offset: 0xE50B, size: 0x8, addend: 0x0, symName: __ZNKSt3__16vectorI4NodoNS_9allocatorIS1_EEE9__end_capB8ue170006Ev, symObjAddr: 0x1D7C, symBinAddr: 0x100003010, symSize: 0x28 }
  - { offsetInCU: 0xE530, offset: 0xE530, size: 0x8, addend: 0x0, symName: __ZNKSt3__117__compressed_pairIP4NodoNS_9allocatorIS1_EEE5firstB8ue170006Ev, symObjAddr: 0x1DA4, symBinAddr: 0x100003038, symSize: 0x24 }
  - { offsetInCU: 0xE555, offset: 0xE555, size: 0x8, addend: 0x0, symName: __ZNKSt3__122__compressed_pair_elemIP4NodoLi0ELb0EE5__getB8ue170006Ev, symObjAddr: 0x1DC8, symBinAddr: 0x10000305C, symSize: 0x14 }
  - { offsetInCU: 0xE57A, offset: 0xE57A, size: 0x8, addend: 0x0, symName: __ZNSt3__114priority_queueI4NodoNS_6vectorIS1_NS_9allocatorIS1_EEEENS_7greaterIS1_EEED2Ev, symObjAddr: 0x1DDC, symBinAddr: 0x100003070, symSize: 0x2C }
  - { offsetInCU: 0xE5A6, offset: 0xE5A6, size: 0x8, addend: 0x0, symName: __ZNSt3__114basic_ofstreamIcNS_11char_traitsIcEEED2Ev, symObjAddr: 0x1E08, symBinAddr: 0x10000309C, symSize: 0x9C }
  - { offsetInCU: 0xE5DE, offset: 0xE5DE, size: 0x8, addend: 0x0, symName: __ZTv0_n24_NSt3__114basic_ofstreamIcNS_11char_traitsIcEEED1Ev, symObjAddr: 0x1EA4, symBinAddr: 0x100003138, symSize: 0x28 }
  - { offsetInCU: 0xE5F5, offset: 0xE5F5, size: 0x8, addend: 0x0, symName: __ZNSt3__114basic_ifstreamIcNS_11char_traitsIcEEED2Ev, symObjAddr: 0x1ECC, symBinAddr: 0x100003160, symSize: 0x9C }
  - { offsetInCU: 0xE62D, offset: 0xE62D, size: 0x8, addend: 0x0, symName: __ZTv0_n24_NSt3__114basic_ifstreamIcNS_11char_traitsIcEEED1Ev, symObjAddr: 0x1F68, symBinAddr: 0x1000031FC, symSize: 0x28 }
  - { offsetInCU: 0xE644, offset: 0xE644, size: 0x8, addend: 0x0, symName: __ZNSt3__14pairIiiEC1B8ue170006ERKiS3_, symObjAddr: 0x1F90, symBinAddr: 0x100003224, symSize: 0x3C }
  - { offsetInCU: 0xE689, offset: 0xE689, size: 0x8, addend: 0x0, symName: __ZNSt3__14pairIiiEC2B8ue170006ERKiS3_, symObjAddr: 0x1FCC, symBinAddr: 0x100003260, symSize: 0x34 }
  - { offsetInCU: 0xE6CE, offset: 0xE6CE, size: 0x8, addend: 0x0, symName: __ZNSt3__111char_traitsIcE6lengthB8ue170006EPKc, symObjAddr: 0x21F4, symBinAddr: 0x100003488, symSize: 0x48 }
  - { offsetInCU: 0xE70F, offset: 0xE70F, size: 0x8, addend: 0x0, symName: __ZNKSt3__113basic_ostreamIcNS_11char_traitsIcEEE6sentrycvbB8ue170006Ev, symObjAddr: 0x223C, symBinAddr: 0x1000034D0, symSize: 0x1C }
  - { offsetInCU: 0xE734, offset: 0xE734, size: 0x8, addend: 0x0, symName: __ZNSt3__119ostreambuf_iteratorIcNS_11char_traitsIcEEEC1B8ue170006ERNS_13basic_ostreamIcS2_EE, symObjAddr: 0x24A0, symBinAddr: 0x100003734, symSize: 0x34 }
  - { offsetInCU: 0xE76B, offset: 0xE76B, size: 0x8, addend: 0x0, symName: __ZNKSt3__18ios_base5flagsB8ue170006Ev, symObjAddr: 0x24D4, symBinAddr: 0x100003768, symSize: 0x18 }
  - { offsetInCU: 0xE791, offset: 0xE791, size: 0x8, addend: 0x0, symName: __ZNKSt3__19basic_iosIcNS_11char_traitsIcEEE4fillB8ue170006Ev, symObjAddr: 0x24EC, symBinAddr: 0x100003780, symSize: 0x64 }
  - { offsetInCU: 0xE7B8, offset: 0xE7B8, size: 0x8, addend: 0x0, symName: __ZNKSt3__119ostreambuf_iteratorIcNS_11char_traitsIcEEE6failedB8ue170006Ev, symObjAddr: 0x2550, symBinAddr: 0x1000037E4, symSize: 0x24 }
  - { offsetInCU: 0xE7DD, offset: 0xE7DD, size: 0x8, addend: 0x0, symName: __ZNSt3__19basic_iosIcNS_11char_traitsIcEEE8setstateB8ue170006Ej, symObjAddr: 0x2574, symBinAddr: 0x100003808, symSize: 0x2C }
  - { offsetInCU: 0xE811, offset: 0xE811, size: 0x8, addend: 0x0, symName: __ZNKSt3__18ios_base5widthB8ue170006Ev, symObjAddr: 0x25A0, symBinAddr: 0x100003834, symSize: 0x18 }
  - { offsetInCU: 0xE838, offset: 0xE838, size: 0x8, addend: 0x0, symName: __ZNSt3__115basic_streambufIcNS_11char_traitsIcEEE5sputnB8ue170006EPKcl, symObjAddr: 0x25B8, symBinAddr: 0x10000384C, symSize: 0x3C }
  - { offsetInCU: 0xE879, offset: 0xE879, size: 0x8, addend: 0x0, symName: __ZNSt3__112basic_stringIcNS_11char_traitsIcEENS_9allocatorIcEEEC1B8ue170006Emc, symObjAddr: 0x25F4, symBinAddr: 0x100003888, symSize: 0x3C }
  - { offsetInCU: 0xE8C0, offset: 0xE8C0, size: 0x8, addend: 0x0, symName: __ZNKSt3__112basic_stringIcNS_11char_traitsIcEENS_9allocatorIcEEE4dataB8ue170006Ev, symObjAddr: 0x2630, symBinAddr: 0x1000038C4, symSize: 0x28 }
  - { offsetInCU: 0xE8E5, offset: 0xE8E5, size: 0x8, addend: 0x0, symName: __ZNSt3__18ios_base5widthB8ue170006El, symObjAddr: 0x2658, symBinAddr: 0x1000038EC, symSize: 0x2C }
  - { offsetInCU: 0xE92A, offset: 0xE92A, size: 0x8, addend: 0x0, symName: __ZNSt3__112basic_stringIcNS_11char_traitsIcEENS_9allocatorIcEEEC2B8ue170006Emc, symObjAddr: 0x2684, symBinAddr: 0x100003918, symSize: 0x4C }
  - { offsetInCU: 0xE976, offset: 0xE976, size: 0x8, addend: 0x0, symName: __ZNSt3__117__compressed_pairINS_12basic_stringIcNS_11char_traitsIcEENS_9allocatorIcEEE5__repES5_EC1B8ue170006INS_18__default_init_tagESA_EEOT_OT0_, symObjAddr: 0x26D0, symBinAddr: 0x100003964, symSize: 0x3C }
  - { offsetInCU: 0xE9CD, offset: 0xE9CD, size: 0x8, addend: 0x0, symName: __ZNSt3__117__compressed_pairINS_12basic_stringIcNS_11char_traitsIcEENS_9allocatorIcEEE5__repES5_EC2B8ue170006INS_18__default_init_tagESA_EEOT_OT0_, symObjAddr: 0x270C, symBinAddr: 0x1000039A0, symSize: 0x3C }
  - { offsetInCU: 0xEA24, offset: 0xEA24, size: 0x8, addend: 0x0, symName: __ZNSt3__122__compressed_pair_elemINS_12basic_stringIcNS_11char_traitsIcEENS_9allocatorIcEEE5__repELi0ELb0EEC2B8ue170006ENS_18__default_init_tagE, symObjAddr: 0x2748, symBinAddr: 0x1000039DC, symSize: 0x14 }
  - { offsetInCU: 0xEA58, offset: 0xEA58, size: 0x8, addend: 0x0, symName: __ZNSt3__122__compressed_pair_elemINS_9allocatorIcEELi1ELb1EEC2B8ue170006ENS_18__default_init_tagE, symObjAddr: 0x275C, symBinAddr: 0x1000039F0, symSize: 0x2C }
  - { offsetInCU: 0xEA8C, offset: 0xEA8C, size: 0x8, addend: 0x0, symName: __ZNSt3__19allocatorIcEC2B8ue170006Ev, symObjAddr: 0x2788, symBinAddr: 0x100003A1C, symSize: 0x2C }
  - { offsetInCU: 0xEAB5, offset: 0xEAB5, size: 0x8, addend: 0x0, symName: __ZNSt3__116__non_trivial_ifILb1ENS_9allocatorIcEEEC2B8ue170006Ev, symObjAddr: 0x27B4, symBinAddr: 0x100003A48, symSize: 0x14 }
  - { offsetInCU: 0xEADE, offset: 0xEADE, size: 0x8, addend: 0x0, symName: __ZNKSt3__112basic_stringIcNS_11char_traitsIcEENS_9allocatorIcEEE13__get_pointerB8ue170006Ev, symObjAddr: 0x27DC, symBinAddr: 0x100003A70, symSize: 0x54 }
  - { offsetInCU: 0xEB03, offset: 0xEB03, size: 0x8, addend: 0x0, symName: __ZNKSt3__112basic_stringIcNS_11char_traitsIcEENS_9allocatorIcEEE9__is_longB8ue170006Ev, symObjAddr: 0x2830, symBinAddr: 0x100003AC4, symSize: 0x74 }
  - { offsetInCU: 0xEB28, offset: 0xEB28, size: 0x8, addend: 0x0, symName: __ZNKSt3__112basic_stringIcNS_11char_traitsIcEENS_9allocatorIcEEE18__get_long_pointerB8ue170006Ev, symObjAddr: 0x28A4, symBinAddr: 0x100003B38, symSize: 0x28 }
  - { offsetInCU: 0xEB4D, offset: 0xEB4D, size: 0x8, addend: 0x0, symName: __ZNKSt3__112basic_stringIcNS_11char_traitsIcEENS_9allocatorIcEEE19__get_short_pointerB8ue170006Ev, symObjAddr: 0x28CC, symBinAddr: 0x100003B60, symSize: 0x28 }
  - { offsetInCU: 0xEB72, offset: 0xEB72, size: 0x8, addend: 0x0, symName: __ZNKSt3__117__compressed_pairINS_12basic_stringIcNS_11char_traitsIcEENS_9allocatorIcEEE5__repES5_E5firstB8ue170006Ev, symObjAddr: 0x28F4, symBinAddr: 0x100003B88, symSize: 0x24 }
  - { offsetInCU: 0xEB97, offset: 0xEB97, size: 0x8, addend: 0x0, symName: __ZNKSt3__122__compressed_pair_elemINS_12basic_stringIcNS_11char_traitsIcEENS_9allocatorIcEEE5__repELi0ELb0EE5__getB8ue170006Ev, symObjAddr: 0x2918, symBinAddr: 0x100003BAC, symSize: 0x14 }
  - { offsetInCU: 0xEBBC, offset: 0xEBBC, size: 0x8, addend: 0x0, symName: __ZNSt3__114pointer_traitsIPKcE10pointer_toB8ue170006ERS1_, symObjAddr: 0x292C, symBinAddr: 0x100003BC0, symSize: 0x14 }
  - { offsetInCU: 0xEBDF, offset: 0xEBDF, size: 0x8, addend: 0x0, symName: __ZNSt3__119ostreambuf_iteratorIcNS_11char_traitsIcEEEC2B8ue170006ERNS_13basic_ostreamIcS2_EE, symObjAddr: 0x2940, symBinAddr: 0x100003BD4, symSize: 0x68 }
  - { offsetInCU: 0xEC15, offset: 0xEC15, size: 0x8, addend: 0x0, symName: __ZNKSt3__19basic_iosIcNS_11char_traitsIcEEE5rdbufB8ue170006Ev, symObjAddr: 0x29A8, symBinAddr: 0x100003C3C, symSize: 0x24 }
  - { offsetInCU: 0xEC3C, offset: 0xEC3C, size: 0x8, addend: 0x0, symName: __ZNKSt3__18ios_base5rdbufB8ue170006Ev, symObjAddr: 0x29CC, symBinAddr: 0x100003C60, symSize: 0x18 }
  - { offsetInCU: 0xEC61, offset: 0xEC61, size: 0x8, addend: 0x0, symName: __ZNSt3__111char_traitsIcE11eq_int_typeB8ue170006Eii, symObjAddr: 0x29E4, symBinAddr: 0x100003C78, symSize: 0x28 }
  - { offsetInCU: 0xEC94, offset: 0xEC94, size: 0x8, addend: 0x0, symName: __ZNSt3__111char_traitsIcE3eofB8ue170006Ev, symObjAddr: 0x2A0C, symBinAddr: 0x100003CA0, symSize: 0x8 }
  - { offsetInCU: 0xECA7, offset: 0xECA7, size: 0x8, addend: 0x0, symName: __ZNKSt3__19basic_iosIcNS_11char_traitsIcEEE5widenB8ue170006Ec, symObjAddr: 0x2A14, symBinAddr: 0x100003CA8, symSize: 0x8C }
  - { offsetInCU: 0xED14, offset: 0xED14, size: 0x8, addend: 0x0, symName: __ZNKSt3__15ctypeIcE5widenB8ue170006Ec, symObjAddr: 0x2ACC, symBinAddr: 0x100003D60, symSize: 0x38 }
  - { offsetInCU: 0xED47, offset: 0xED47, size: 0x8, addend: 0x0, symName: __ZNSt3__18ios_base8setstateB8ue170006Ej, symObjAddr: 0x2B04, symBinAddr: 0x100003D98, symSize: 0x34 }
  - { offsetInCU: 0xED7D, offset: 0xED7D, size: 0x8, addend: 0x0, symName: __ZNSt3__19basic_iosIcNS_11char_traitsIcEEEC2B8ue170006Ev, symObjAddr: 0x2B5C, symBinAddr: 0x100003DF0, symSize: 0x44 }
  - { offsetInCU: 0xEDA6, offset: 0xEDA6, size: 0x8, addend: 0x0, symName: __ZNSt3__113basic_istreamIcNS_11char_traitsIcEEEC2B8ue170006EPNS_15basic_streambufIcS2_EE, symObjAddr: 0x2BA0, symBinAddr: 0x100003E34, symSize: 0x64 }
  - { offsetInCU: 0xEDE9, offset: 0xEDE9, size: 0x8, addend: 0x0, symName: __ZNSt3__18ios_baseC2B8ue170006Ev, symObjAddr: 0x2C04, symBinAddr: 0x100003E98, symSize: 0x24 }
  - { offsetInCU: 0xEE11, offset: 0xEE11, size: 0x8, addend: 0x0, symName: __ZNSt3__19basic_iosIcNS_11char_traitsIcEEE4initB8ue170006EPNS_15basic_streambufIcS2_EE, symObjAddr: 0x2C28, symBinAddr: 0x100003EBC, symSize: 0x44 }
  - { offsetInCU: 0xEE47, offset: 0xEE47, size: 0x8, addend: 0x0, symName: __ZNSt3__113basic_ostreamIcNS_11char_traitsIcEEEC2B8ue170006EPNS_15basic_streambufIcS2_EE, symObjAddr: 0x2C6C, symBinAddr: 0x100003F00, symSize: 0x60 }
  - { offsetInCU: 0xEE8A, offset: 0xEE8A, size: 0x8, addend: 0x0, symName: __ZNKSt3__113basic_filebufIcNS_11char_traitsIcEEE7is_openEv, symObjAddr: 0x2CCC, symBinAddr: 0x100003F60, symSize: 0x24 }
  - { offsetInCU: 0xEEB1, offset: 0xEEB1, size: 0x8, addend: 0x0, symName: __ZNSt3__112basic_stringIcNS_11char_traitsIcEENS_9allocatorIcEEEC2B8ue170006Ev, symObjAddr: 0x2CF0, symBinAddr: 0x100003F84, symSize: 0x3C }
  - { offsetInCU: 0xEEDA, offset: 0xEEDA, size: 0x8, addend: 0x0, symName: __ZNSt3__112basic_stringIcNS_11char_traitsIcEENS_9allocatorIcEEE14__default_initB8ue170006Ev, symObjAddr: 0x2D2C, symBinAddr: 0x100003FC0, symSize: 0xB0 }
  - { offsetInCU: 0xEF2C, offset: 0xEF2C, size: 0x8, addend: 0x0, symName: __ZNSt3__117__compressed_pairINS_12basic_stringIcNS_11char_traitsIcEENS_9allocatorIcEEE5__repES5_E5firstB8ue170006Ev, symObjAddr: 0x2DDC, symBinAddr: 0x100004070, symSize: 0x24 }
  - { offsetInCU: 0xEF51, offset: 0xEF51, size: 0x8, addend: 0x0, symName: __ZNSt3__112basic_stringIcNS_11char_traitsIcEENS_9allocatorIcEEE11__recommendB8ue170006Em, symObjAddr: 0x2E00, symBinAddr: 0x100004094, symSize: 0x9C }
  - { offsetInCU: 0xEF84, offset: 0xEF84, size: 0x8, addend: 0x0, symName: __ZNSt3__116allocator_traitsINS_9allocatorIcEEE8allocateB8ue170006ERS2_m, symObjAddr: 0x2E9C, symBinAddr: 0x100004130, symSize: 0x2C }
  - { offsetInCU: 0xEFB7, offset: 0xEFB7, size: 0x8, addend: 0x0, symName: __ZNSt3__112basic_stringIcNS_11char_traitsIcEENS_9allocatorIcEEE7__allocB8ue170006Ev, symObjAddr: 0x2EC8, symBinAddr: 0x10000415C, symSize: 0x24 }
  - { offsetInCU: 0xEFDC, offset: 0xEFDC, size: 0x8, addend: 0x0, symName: __ZNSt3__112basic_stringIcNS_11char_traitsIcEENS_9allocatorIcEEE16__begin_lifetimeB8ue170006EPcm, symObjAddr: 0x2EEC, symBinAddr: 0x100004180, symSize: 0x14 }
  - { offsetInCU: 0xF00F, offset: 0xF00F, size: 0x8, addend: 0x0, symName: __ZNSt3__112basic_stringIcNS_11char_traitsIcEENS_9allocatorIcEEE18__set_long_pointerB8ue170006EPc, symObjAddr: 0x2F00, symBinAddr: 0x100004194, symSize: 0x38 }
  - { offsetInCU: 0xF043, offset: 0xF043, size: 0x8, addend: 0x0, symName: __ZNSt3__112basic_stringIcNS_11char_traitsIcEENS_9allocatorIcEEE14__set_long_capB8ue170006Em, symObjAddr: 0x2F38, symBinAddr: 0x1000041CC, symSize: 0x70 }
  - { offsetInCU: 0xF077, offset: 0xF077, size: 0x8, addend: 0x0, symName: __ZNSt3__112basic_stringIcNS_11char_traitsIcEENS_9allocatorIcEEE15__set_long_sizeB8ue170006Em, symObjAddr: 0x2FA8, symBinAddr: 0x10000423C, symSize: 0x38 }
  - { offsetInCU: 0xF0AB, offset: 0xF0AB, size: 0x8, addend: 0x0, symName: __ZNSt3__122__compressed_pair_elemINS_12basic_stringIcNS_11char_traitsIcEENS_9allocatorIcEEE5__repELi0ELb0EE5__getB8ue170006Ev, symObjAddr: 0x2FE0, symBinAddr: 0x100004274, symSize: 0x14 }
  - { offsetInCU: 0xF0D0, offset: 0xF0D0, size: 0x8, addend: 0x0, symName: __ZNSt3__112basic_stringIcNS_11char_traitsIcEENS_9allocatorIcEEE10__align_itB8ue170006ILm16EEEmm, symObjAddr: 0x2FF4, symBinAddr: 0x100004288, symSize: 0x1C }
  - { offsetInCU: 0xF0FE, offset: 0xF0FE, size: 0x8, addend: 0x0, symName: __ZNSt3__19allocatorIcE8allocateB8ue170006Em, symObjAddr: 0x3010, symBinAddr: 0x1000042A4, symSize: 0x84 }
  - { offsetInCU: 0xF13B, offset: 0xF13B, size: 0x8, addend: 0x0, symName: __ZNSt3__116allocator_traitsINS_9allocatorIcEEE8max_sizeB8ue170006IS2_vEEmRKS2_, symObjAddr: 0x3094, symBinAddr: 0x100004328, symSize: 0x24 }
  - { offsetInCU: 0xF169, offset: 0xF169, size: 0x8, addend: 0x0, symName: __ZNKSt3__19allocatorIcE8max_sizeB8ue170006Ev, symObjAddr: 0x3114, symBinAddr: 0x1000043A8, symSize: 0x14 }
  - { offsetInCU: 0xF18E, offset: 0xF18E, size: 0x8, addend: 0x0, symName: __ZNSt3__117__compressed_pairINS_12basic_stringIcNS_11char_traitsIcEENS_9allocatorIcEEE5__repES5_E6secondB8ue170006Ev, symObjAddr: 0x314C, symBinAddr: 0x1000043E0, symSize: 0x24 }
  - { offsetInCU: 0xF1B3, offset: 0xF1B3, size: 0x8, addend: 0x0, symName: __ZNSt3__122__compressed_pair_elemINS_9allocatorIcEELi1ELb1EE5__getB8ue170006Ev, symObjAddr: 0x3170, symBinAddr: 0x100004404, symSize: 0x14 }
  - { offsetInCU: 0xF1D8, offset: 0xF1D8, size: 0x8, addend: 0x0, symName: __ZNSt3__16vectorINS_12basic_stringIcNS_11char_traitsIcEENS_9allocatorIcEEEENS4_IS6_EEEC2B8ue170006Ev, symObjAddr: 0x3184, symBinAddr: 0x100004418, symSize: 0x44 }
  - { offsetInCU: 0xF206, offset: 0xF206, size: 0x8, addend: 0x0, symName: __ZNSt3__117__compressed_pairIPNS_12basic_stringIcNS_11char_traitsIcEENS_9allocatorIcEEEENS4_IS6_EEEC1B8ue170006IDnNS_18__default_init_tagEEEOT_OT0_, symObjAddr: 0x31C8, symBinAddr: 0x10000445C, symSize: 0x3C }
  - { offsetInCU: 0xF25D, offset: 0xF25D, size: 0x8, addend: 0x0, symName: __ZNSt3__117__compressed_pairIPNS_12basic_stringIcNS_11char_traitsIcEENS_9allocatorIcEEEENS4_IS6_EEEC2B8ue170006IDnNS_18__default_init_tagEEEOT_OT0_, symObjAddr: 0x3204, symBinAddr: 0x100004498, symSize: 0x40 }
  - { offsetInCU: 0xF2B4, offset: 0xF2B4, size: 0x8, addend: 0x0, symName: __ZNSt3__122__compressed_pair_elemIPNS_12basic_stringIcNS_11char_traitsIcEENS_9allocatorIcEEEELi0ELb0EEC2B8ue170006IDnvEEOT_, symObjAddr: 0x3244, symBinAddr: 0x1000044D8, symSize: 0x1C }
  - { offsetInCU: 0xF2F5, offset: 0xF2F5, size: 0x8, addend: 0x0, symName: __ZNSt3__122__compressed_pair_elemINS_9allocatorINS_12basic_stringIcNS_11char_traitsIcEENS1_IcEEEEEELi1ELb1EEC2B8ue170006ENS_18__default_init_tagE, symObjAddr: 0x3260, symBinAddr: 0x1000044F4, symSize: 0x2C }
  - { offsetInCU: 0xF329, offset: 0xF329, size: 0x8, addend: 0x0, symName: __ZNSt3__19allocatorINS_12basic_stringIcNS_11char_traitsIcEENS0_IcEEEEEC2B8ue170006Ev, symObjAddr: 0x328C, symBinAddr: 0x100004520, symSize: 0x2C }
  - { offsetInCU: 0xF352, offset: 0xF352, size: 0x8, addend: 0x0, symName: __ZNSt3__116__non_trivial_ifILb1ENS_9allocatorINS_12basic_stringIcNS_11char_traitsIcEENS1_IcEEEEEEEC2B8ue170006Ev, symObjAddr: 0x32B8, symBinAddr: 0x10000454C, symSize: 0x14 }
  - { offsetInCU: 0xF37B, offset: 0xF37B, size: 0x8, addend: 0x0, symName: __ZNSt3__16vectorINS_12basic_stringIcNS_11char_traitsIcEENS_9allocatorIcEEEENS4_IS6_EEED2B8ue170006Ev, symObjAddr: 0x32CC, symBinAddr: 0x100004560, symSize: 0x3C }
  - { offsetInCU: 0xF3A4, offset: 0xF3A4, size: 0x8, addend: 0x0, symName: __ZNSt3__16vectorINS_12basic_stringIcNS_11char_traitsIcEENS_9allocatorIcEEEENS4_IS6_EEE16__destroy_vectorC1B8ue170006ERS8_, symObjAddr: 0x3308, symBinAddr: 0x10000459C, symSize: 0x34 }
  - { offsetInCU: 0xF3DC, offset: 0xF3DC, size: 0x8, addend: 0x0, symName: __ZNSt3__16vectorINS_12basic_stringIcNS_11char_traitsIcEENS_9allocatorIcEEEENS4_IS6_EEE16__destroy_vectorclB8ue170006Ev, symObjAddr: 0x333C, symBinAddr: 0x1000045D0, symSize: 0x90 }
  - { offsetInCU: 0xF401, offset: 0xF401, size: 0x8, addend: 0x0, symName: __ZNSt3__16vectorINS_12basic_stringIcNS_11char_traitsIcEENS_9allocatorIcEEEENS4_IS6_EEE16__destroy_vectorC2B8ue170006ERS8_, symObjAddr: 0x33CC, symBinAddr: 0x100004660, symSize: 0x20 }
  - { offsetInCU: 0xF439, offset: 0xF439, size: 0x8, addend: 0x0, symName: __ZNSt3__16vectorINS_12basic_stringIcNS_11char_traitsIcEENS_9allocatorIcEEEENS4_IS6_EEE7__clearB8ue170006Ev, symObjAddr: 0x33EC, symBinAddr: 0x100004680, symSize: 0x28 }
  - { offsetInCU: 0xF45E, offset: 0xF45E, size: 0x8, addend: 0x0, symName: __ZNKSt3__16vectorINS_12basic_stringIcNS_11char_traitsIcEENS_9allocatorIcEEEENS4_IS6_EEE17__annotate_deleteB8ue170006Ev, symObjAddr: 0x3414, symBinAddr: 0x1000046A8, symSize: 0xD4 }
  - { offsetInCU: 0xF483, offset: 0xF483, size: 0x8, addend: 0x0, symName: __ZNSt3__116allocator_traitsINS_9allocatorINS_12basic_stringIcNS_11char_traitsIcEENS1_IcEEEEEEE10deallocateB8ue170006ERS7_PS6_m, symObjAddr: 0x34E8, symBinAddr: 0x10000477C, symSize: 0x34 }
  - { offsetInCU: 0xF4C5, offset: 0xF4C5, size: 0x8, addend: 0x0, symName: __ZNSt3__16vectorINS_12basic_stringIcNS_11char_traitsIcEENS_9allocatorIcEEEENS4_IS6_EEE7__allocB8ue170006Ev, symObjAddr: 0x351C, symBinAddr: 0x1000047B0, symSize: 0x28 }
  - { offsetInCU: 0xF4EA, offset: 0xF4EA, size: 0x8, addend: 0x0, symName: __ZNKSt3__16vectorINS_12basic_stringIcNS_11char_traitsIcEENS_9allocatorIcEEEENS4_IS6_EEE8capacityB8ue170006Ev, symObjAddr: 0x3544, symBinAddr: 0x1000047D8, symSize: 0x40 }
  - { offsetInCU: 0xF50F, offset: 0xF50F, size: 0x8, addend: 0x0, symName: __ZNSt3__16vectorINS_12basic_stringIcNS_11char_traitsIcEENS_9allocatorIcEEEENS4_IS6_EEE22__base_destruct_at_endB8ue170006EPS6_, symObjAddr: 0x3584, symBinAddr: 0x100004818, symSize: 0xA0 }
  - { offsetInCU: 0xF552, offset: 0xF552, size: 0x8, addend: 0x0, symName: __ZNSt3__116allocator_traitsINS_9allocatorINS_12basic_stringIcNS_11char_traitsIcEENS1_IcEEEEEEE7destroyB8ue170006IS6_vEEvRS7_PT_, symObjAddr: 0x3624, symBinAddr: 0x1000048B8, symSize: 0x2C }
  - { offsetInCU: 0xF58F, offset: 0xF58F, size: 0x8, addend: 0x0, symName: __ZNSt3__19allocatorINS_12basic_stringIcNS_11char_traitsIcEENS0_IcEEEEE7destroyB8ue170006EPS5_, symObjAddr: 0x3664, symBinAddr: 0x1000048F8, symSize: 0x28 }
  - { offsetInCU: 0xF5C2, offset: 0xF5C2, size: 0x8, addend: 0x0, symName: __ZNKSt3__16vectorINS_12basic_stringIcNS_11char_traitsIcEENS_9allocatorIcEEEENS4_IS6_EEE31__annotate_contiguous_containerB8ue170006EPKvSA_SA_SA_, symObjAddr: 0x368C, symBinAddr: 0x100004920, symSize: 0x20 }
  - { offsetInCU: 0xF617, offset: 0xF617, size: 0x8, addend: 0x0, symName: __ZNKSt3__16vectorINS_12basic_stringIcNS_11char_traitsIcEENS_9allocatorIcEEEENS4_IS6_EEE4dataB8ue170006Ev, symObjAddr: 0x36AC, symBinAddr: 0x100004940, symSize: 0x28 }
  - { offsetInCU: 0xF63C, offset: 0xF63C, size: 0x8, addend: 0x0, symName: __ZNKSt3__16vectorINS_12basic_stringIcNS_11char_traitsIcEENS_9allocatorIcEEEENS4_IS6_EEE4sizeB8ue170006Ev, symObjAddr: 0x36D4, symBinAddr: 0x100004968, symSize: 0x28 }
  - { offsetInCU: 0xF661, offset: 0xF661, size: 0x8, addend: 0x0, symName: __ZNSt3__19allocatorINS_12basic_stringIcNS_11char_traitsIcEENS0_IcEEEEE10deallocateB8ue170006EPS5_m, symObjAddr: 0x36FC, symBinAddr: 0x100004990, symSize: 0x74 }
  - { offsetInCU: 0xF6A2, offset: 0xF6A2, size: 0x8, addend: 0x0, symName: __ZNSt3__117__compressed_pairIPNS_12basic_stringIcNS_11char_traitsIcEENS_9allocatorIcEEEENS4_IS6_EEE6secondB8ue170006Ev, symObjAddr: 0x3770, symBinAddr: 0x100004A04, symSize: 0x24 }
  - { offsetInCU: 0xF6C7, offset: 0xF6C7, size: 0x8, addend: 0x0, symName: __ZNSt3__122__compressed_pair_elemINS_9allocatorINS_12basic_stringIcNS_11char_traitsIcEENS1_IcEEEEEELi1ELb1EE5__getB8ue170006Ev, symObjAddr: 0x3794, symBinAddr: 0x100004A28, symSize: 0x14 }
  - { offsetInCU: 0xF6EC, offset: 0xF6EC, size: 0x8, addend: 0x0, symName: __ZNKSt3__16vectorINS_12basic_stringIcNS_11char_traitsIcEENS_9allocatorIcEEEENS4_IS6_EEE9__end_capB8ue170006Ev, symObjAddr: 0x37A8, symBinAddr: 0x100004A3C, symSize: 0x28 }
  - { offsetInCU: 0xF711, offset: 0xF711, size: 0x8, addend: 0x0, symName: __ZNKSt3__117__compressed_pairIPNS_12basic_stringIcNS_11char_traitsIcEENS_9allocatorIcEEEENS4_IS6_EEE5firstB8ue170006Ev, symObjAddr: 0x37D0, symBinAddr: 0x100004A64, symSize: 0x24 }
  - { offsetInCU: 0xF736, offset: 0xF736, size: 0x8, addend: 0x0, symName: __ZNKSt3__122__compressed_pair_elemIPNS_12basic_stringIcNS_11char_traitsIcEENS_9allocatorIcEEEELi0ELb0EE5__getB8ue170006Ev, symObjAddr: 0x37F4, symBinAddr: 0x100004A88, symSize: 0x14 }
  - { offsetInCU: 0xF779, offset: 0xF779, size: 0x8, addend: 0x0, symName: __ZNKSt3__113basic_istreamIcNS_11char_traitsIcEEE6sentrycvbB8ue170006Ev, symObjAddr: 0x3A40, symBinAddr: 0x100004CD4, symSize: 0x1C }
  - { offsetInCU: 0xF79E, offset: 0xF79E, size: 0x8, addend: 0x0, symName: __ZNSt3__115basic_streambufIcNS_11char_traitsIcEEE6sbumpcB8ue170006Ev, symObjAddr: 0x3A5C, symBinAddr: 0x100004CF0, symSize: 0x78 }
  - { offsetInCU: 0xF7C3, offset: 0xF7C3, size: 0x8, addend: 0x0, symName: __ZNSt3__111char_traitsIcE12to_char_typeB8ue170006Ei, symObjAddr: 0x3AD4, symBinAddr: 0x100004D68, symSize: 0x18 }
  - { offsetInCU: 0xF7E6, offset: 0xF7E6, size: 0x8, addend: 0x0, symName: __ZNSt3__111char_traitsIcE2eqEcc, symObjAddr: 0x3AEC, symBinAddr: 0x100004D80, symSize: 0x28 }
  - { offsetInCU: 0xF817, offset: 0xF817, size: 0x8, addend: 0x0, symName: __ZNKSt3__112basic_stringIcNS_11char_traitsIcEENS_9allocatorIcEEE8max_sizeB8ue170006Ev, symObjAddr: 0x3B14, symBinAddr: 0x100004DA8, symSize: 0xAC }
  - { offsetInCU: 0xF869, offset: 0xF869, size: 0x8, addend: 0x0, symName: __ZNSt3__18ios_base18__setstate_nothrowB8ue170006Ej, symObjAddr: 0x3BC0, symBinAddr: 0x100004E54, symSize: 0x64 }
  - { offsetInCU: 0xF89D, offset: 0xF89D, size: 0x8, addend: 0x0, symName: __ZNKSt3__19basic_iosIcNS_11char_traitsIcEEE10exceptionsB8ue170006Ev, symObjAddr: 0x3C24, symBinAddr: 0x100004EB8, symSize: 0x24 }
  - { offsetInCU: 0xF8C2, offset: 0xF8C2, size: 0x8, addend: 0x0, symName: __ZNSt3__111char_traitsIcE11to_int_typeB8ue170006Ec, symObjAddr: 0x3C48, symBinAddr: 0x100004EDC, symSize: 0x14 }
  - { offsetInCU: 0xF8E6, offset: 0xF8E6, size: 0x8, addend: 0x0, symName: __ZNKSt3__112basic_stringIcNS_11char_traitsIcEENS_9allocatorIcEEE7__allocB8ue170006Ev, symObjAddr: 0x3C5C, symBinAddr: 0x100004EF0, symSize: 0x24 }
  - { offsetInCU: 0xF90B, offset: 0xF90B, size: 0x8, addend: 0x0, symName: __ZNSt3__114numeric_limitsImE3maxB8ue170006Ev, symObjAddr: 0x3C80, symBinAddr: 0x100004F14, symSize: 0x14 }
  - { offsetInCU: 0xF91F, offset: 0xF91F, size: 0x8, addend: 0x0, symName: __ZNKSt3__117__compressed_pairINS_12basic_stringIcNS_11char_traitsIcEENS_9allocatorIcEEE5__repES5_E6secondB8ue170006Ev, symObjAddr: 0x3C94, symBinAddr: 0x100004F28, symSize: 0x24 }
  - { offsetInCU: 0xF944, offset: 0xF944, size: 0x8, addend: 0x0, symName: __ZNKSt3__122__compressed_pair_elemINS_9allocatorIcEELi1ELb1EE5__getB8ue170006Ev, symObjAddr: 0x3CB8, symBinAddr: 0x100004F4C, symSize: 0x14 }
  - { offsetInCU: 0xF969, offset: 0xF969, size: 0x8, addend: 0x0, symName: __ZNSt3__123__libcpp_numeric_limitsImLb1EE3maxB8ue170006Ev, symObjAddr: 0x3CCC, symBinAddr: 0x100004F60, symSize: 0x8 }
  - { offsetInCU: 0xF97D, offset: 0xF97D, size: 0x8, addend: 0x0, symName: __ZNKSt3__18ios_base10exceptionsB8ue170006Ev, symObjAddr: 0x3CD4, symBinAddr: 0x100004F68, symSize: 0x18 }
  - { offsetInCU: 0xF9A4, offset: 0xF9A4, size: 0x8, addend: 0x0, symName: __ZNKSt3__19basic_iosIcNS_11char_traitsIcEEE4failB8ue170006Ev, symObjAddr: 0x3CEC, symBinAddr: 0x100004F80, symSize: 0x28 }
  - { offsetInCU: 0xF9C9, offset: 0xF9C9, size: 0x8, addend: 0x0, symName: __ZNKSt3__18ios_base4failB8ue170006Ev, symObjAddr: 0x3D14, symBinAddr: 0x100004FA8, symSize: 0x28 }
  - { offsetInCU: 0xF9F0, offset: 0xF9F0, size: 0x8, addend: 0x0, symName: __ZNKSt3__112basic_stringIcNS_11char_traitsIcEENS_9allocatorIcEEE15__get_long_sizeB8ue170006Ev, symObjAddr: 0x3D3C, symBinAddr: 0x100004FD0, symSize: 0x28 }
  - { offsetInCU: 0xFA15, offset: 0xFA15, size: 0x8, addend: 0x0, symName: __ZNKSt3__112basic_stringIcNS_11char_traitsIcEENS_9allocatorIcEEE16__get_short_sizeB8ue170006Ev, symObjAddr: 0x3D64, symBinAddr: 0x100004FF8, symSize: 0x34 }
  - { offsetInCU: 0xFA3A, offset: 0xFA3A, size: 0x8, addend: 0x0, symName: __ZNSt3__112basic_stringIcNS_11char_traitsIcEENS_9allocatorIcEEE13__get_pointerB8ue170006Ev, symObjAddr: 0x3D98, symBinAddr: 0x10000502C, symSize: 0x54 }
  - { offsetInCU: 0xFA5F, offset: 0xFA5F, size: 0x8, addend: 0x0, symName: __ZNSt3__112basic_stringIcNS_11char_traitsIcEENS_9allocatorIcEEE18__get_long_pointerB8ue170006Ev, symObjAddr: 0x3DEC, symBinAddr: 0x100005080, symSize: 0x28 }
  - { offsetInCU: 0xFA84, offset: 0xFA84, size: 0x8, addend: 0x0, symName: __ZNSt3__112basic_stringIcNS_11char_traitsIcEENS_9allocatorIcEEE19__get_short_pointerB8ue170006Ev, symObjAddr: 0x3E14, symBinAddr: 0x1000050A8, symSize: 0x28 }
  - { offsetInCU: 0xFAA9, offset: 0xFAA9, size: 0x8, addend: 0x0, symName: __ZNSt3__114pointer_traitsIPcE10pointer_toB8ue170006ERc, symObjAddr: 0x3E3C, symBinAddr: 0x1000050D0, symSize: 0x14 }
  - { offsetInCU: 0xFACC, offset: 0xFACC, size: 0x8, addend: 0x0, symName: __ZNSt3__16vectorINS_12basic_stringIcNS_11char_traitsIcEENS_9allocatorIcEEEENS4_IS6_EEE9__end_capB8ue170006Ev, symObjAddr: 0x3E50, symBinAddr: 0x1000050E4, symSize: 0x28 }
  - { offsetInCU: 0xFAF1, offset: 0xFAF1, size: 0x8, addend: 0x0, symName: __ZNSt3__16vectorINS_12basic_stringIcNS_11char_traitsIcEENS_9allocatorIcEEEENS4_IS6_EEE22__construct_one_at_endB8ue170006IJRKS6_EEEvDpOT_, symObjAddr: 0x3E78, symBinAddr: 0x10000510C, symSize: 0x98 }
  - { offsetInCU: 0xFB3E, offset: 0xFB3E, size: 0x8, addend: 0x0, symName: __ZNSt3__16vectorINS_12basic_stringIcNS_11char_traitsIcEENS_9allocatorIcEEEENS4_IS6_EEE21__push_back_slow_pathIRKS6_EEvOT_, symObjAddr: 0x3F10, symBinAddr: 0x1000051A4, symSize: 0xE0 }
  - { offsetInCU: 0xFB9B, offset: 0xFB9B, size: 0x8, addend: 0x0, symName: __ZNSt3__117__compressed_pairIPNS_12basic_stringIcNS_11char_traitsIcEENS_9allocatorIcEEEENS4_IS6_EEE5firstB8ue170006Ev, symObjAddr: 0x3FF0, symBinAddr: 0x100005284, symSize: 0x24 }
  - { offsetInCU: 0xFBC0, offset: 0xFBC0, size: 0x8, addend: 0x0, symName: __ZNSt3__122__compressed_pair_elemIPNS_12basic_stringIcNS_11char_traitsIcEENS_9allocatorIcEEEELi0ELb0EE5__getB8ue170006Ev, symObjAddr: 0x4014, symBinAddr: 0x1000052A8, symSize: 0x14 }
  - { offsetInCU: 0xFBFE, offset: 0xFBFE, size: 0x8, addend: 0x0, symName: __ZNSt3__16vectorINS_12basic_stringIcNS_11char_traitsIcEENS_9allocatorIcEEEENS4_IS6_EEE21_ConstructTransactionC1B8ue170006ERS8_m, symObjAddr: 0x4028, symBinAddr: 0x1000052BC, symSize: 0x3C }
  - { offsetInCU: 0xFC45, offset: 0xFC45, size: 0x8, addend: 0x0, symName: __ZNSt3__116allocator_traitsINS_9allocatorINS_12basic_stringIcNS_11char_traitsIcEENS1_IcEEEEEEE9constructB8ue170006IS6_JRKS6_EvEEvRS7_PT_DpOT0_, symObjAddr: 0x4064, symBinAddr: 0x1000052F8, symSize: 0x34 }
  - { offsetInCU: 0xFC9C, offset: 0xFC9C, size: 0x8, addend: 0x0, symName: __ZNSt3__16vectorINS_12basic_stringIcNS_11char_traitsIcEENS_9allocatorIcEEEENS4_IS6_EEE21_ConstructTransactionD1B8ue170006Ev, symObjAddr: 0x4098, symBinAddr: 0x10000532C, symSize: 0x2C }
  - { offsetInCU: 0xFCC5, offset: 0xFCC5, size: 0x8, addend: 0x0, symName: __ZNSt3__16vectorINS_12basic_stringIcNS_11char_traitsIcEENS_9allocatorIcEEEENS4_IS6_EEE21_ConstructTransactionC2B8ue170006ERS8_m, symObjAddr: 0x40C4, symBinAddr: 0x100005358, symSize: 0x4C }
  - { offsetInCU: 0xFD0C, offset: 0xFD0C, size: 0x8, addend: 0x0, symName: __ZNSt3__19allocatorINS_12basic_stringIcNS_11char_traitsIcEENS0_IcEEEEE9constructB8ue170006IS5_JRKS5_EEEvPT_DpOT0_, symObjAddr: 0x4110, symBinAddr: 0x1000053A4, symSize: 0x30 }
  - { offsetInCU: 0xFD61, offset: 0xFD61, size: 0x8, addend: 0x0, symName: __ZNSt3__16vectorINS_12basic_stringIcNS_11char_traitsIcEENS_9allocatorIcEEEENS4_IS6_EEE21_ConstructTransactionD2B8ue170006Ev, symObjAddr: 0x4140, symBinAddr: 0x1000053D4, symSize: 0x20 }
  - { offsetInCU: 0xFD89, offset: 0xFD89, size: 0x8, addend: 0x0, symName: __ZNKSt3__16vectorINS_12basic_stringIcNS_11char_traitsIcEENS_9allocatorIcEEEENS4_IS6_EEE11__recommendB8ue170006Em, symObjAddr: 0x4160, symBinAddr: 0x1000053F4, symSize: 0xB4 }
  - { offsetInCU: 0xFDDD, offset: 0xFDDD, size: 0x8, addend: 0x0, symName: __ZNSt3__114__split_bufferINS_12basic_stringIcNS_11char_traitsIcEENS_9allocatorIcEEEERNS4_IS6_EEEC1EmmS8_, symObjAddr: 0x4214, symBinAddr: 0x1000054A8, symSize: 0x44 }
  - { offsetInCU: 0xFE32, offset: 0xFE32, size: 0x8, addend: 0x0, symName: __ZNSt3__114__split_bufferINS_12basic_stringIcNS_11char_traitsIcEENS_9allocatorIcEEEERNS4_IS6_EEED1Ev, symObjAddr: 0x4368, symBinAddr: 0x1000055FC, symSize: 0x2C }
  - { offsetInCU: 0xFE5C, offset: 0xFE5C, size: 0x8, addend: 0x0, symName: __ZNKSt3__16vectorINS_12basic_stringIcNS_11char_traitsIcEENS_9allocatorIcEEEENS4_IS6_EEE8max_sizeEv, symObjAddr: 0x4394, symBinAddr: 0x100005628, symSize: 0x74 }
  - { offsetInCU: 0xFE83, offset: 0xFE83, size: 0x8, addend: 0x0, symName: __ZNKSt3__16vectorINS_12basic_stringIcNS_11char_traitsIcEENS_9allocatorIcEEEENS4_IS6_EEE20__throw_length_errorB8ue170006Ev, symObjAddr: 0x4408, symBinAddr: 0x10000569C, symSize: 0x1C }
  - { offsetInCU: 0xFEB2, offset: 0xFEB2, size: 0x8, addend: 0x0, symName: __ZNSt3__116allocator_traitsINS_9allocatorINS_12basic_stringIcNS_11char_traitsIcEENS1_IcEEEEEEE8max_sizeB8ue170006IS7_vEEmRKS7_, symObjAddr: 0x447C, symBinAddr: 0x100005710, symSize: 0x24 }
  - { offsetInCU: 0xFEE0, offset: 0xFEE0, size: 0x8, addend: 0x0, symName: __ZNKSt3__16vectorINS_12basic_stringIcNS_11char_traitsIcEENS_9allocatorIcEEEENS4_IS6_EEE7__allocB8ue170006Ev, symObjAddr: 0x44A0, symBinAddr: 0x100005734, symSize: 0x28 }
  - { offsetInCU: 0xFF05, offset: 0xFF05, size: 0x8, addend: 0x0, symName: __ZNSt3__114numeric_limitsIlE3maxB8ue170006Ev, symObjAddr: 0x44C8, symBinAddr: 0x10000575C, symSize: 0x14 }
  - { offsetInCU: 0xFF2D, offset: 0xFF2D, size: 0x8, addend: 0x0, symName: __ZNKSt3__16__lessIvvEclB8ue170006ImmEEbRKT_RKT0_, symObjAddr: 0x4530, symBinAddr: 0x1000057C4, symSize: 0x34 }
  - { offsetInCU: 0xFF80, offset: 0xFF80, size: 0x8, addend: 0x0, symName: __ZNKSt3__19allocatorINS_12basic_stringIcNS_11char_traitsIcEENS0_IcEEEEE8max_sizeB8ue170006Ev, symObjAddr: 0x4564, symBinAddr: 0x1000057F8, symSize: 0x18 }
  - { offsetInCU: 0xFFA5, offset: 0xFFA5, size: 0x8, addend: 0x0, symName: __ZNKSt3__117__compressed_pairIPNS_12basic_stringIcNS_11char_traitsIcEENS_9allocatorIcEEEENS4_IS6_EEE6secondB8ue170006Ev, symObjAddr: 0x457C, symBinAddr: 0x100005810, symSize: 0x24 }
  - { offsetInCU: 0xFFCA, offset: 0xFFCA, size: 0x8, addend: 0x0, symName: __ZNKSt3__122__compressed_pair_elemINS_9allocatorINS_12basic_stringIcNS_11char_traitsIcEENS1_IcEEEEEELi1ELb1EE5__getB8ue170006Ev, symObjAddr: 0x45A0, symBinAddr: 0x100005834, symSize: 0x14 }
  - { offsetInCU: 0xFFEF, offset: 0xFFEF, size: 0x8, addend: 0x0, symName: __ZNSt3__123__libcpp_numeric_limitsIlLb1EE3maxB8ue170006Ev, symObjAddr: 0x45B4, symBinAddr: 0x100005848, symSize: 0x8 }
  - { offsetInCU: 0x10003, offset: 0x10003, size: 0x8, addend: 0x0, symName: __ZNSt12length_errorC1B8ue170006EPKc, symObjAddr: 0x4620, symBinAddr: 0x1000058B4, symSize: 0x34 }
  - { offsetInCU: 0x1003A, offset: 0x1003A, size: 0x8, addend: 0x0, symName: __ZNSt12length_errorC2B8ue170006EPKc, symObjAddr: 0x4654, symBinAddr: 0x1000058E8, symSize: 0x4C }
  - { offsetInCU: 0x10071, offset: 0x10071, size: 0x8, addend: 0x0, symName: __ZNSt3__114__split_bufferINS_12basic_stringIcNS_11char_traitsIcEENS_9allocatorIcEEEERNS4_IS6_EEEC2EmmS8_, symObjAddr: 0x46F4, symBinAddr: 0x100005988, symSize: 0xE0 }
  - { offsetInCU: 0x100E4, offset: 0x100E4, size: 0x8, addend: 0x0, symName: __ZNSt3__117__compressed_pairIPNS_12basic_stringIcNS_11char_traitsIcEENS_9allocatorIcEEEERNS4_IS6_EEEC1B8ue170006IDnS9_EEOT_OT0_, symObjAddr: 0x47D4, symBinAddr: 0x100005A68, symSize: 0x3C }
  - { offsetInCU: 0x1013B, offset: 0x1013B, size: 0x8, addend: 0x0, symName: __ZNSt3__114__split_bufferINS_12basic_stringIcNS_11char_traitsIcEENS_9allocatorIcEEEERNS4_IS6_EEE7__allocB8ue170006Ev, symObjAddr: 0x4850, symBinAddr: 0x100005AE4, symSize: 0x28 }
  - { offsetInCU: 0x10160, offset: 0x10160, size: 0x8, addend: 0x0, symName: __ZNSt3__114__split_bufferINS_12basic_stringIcNS_11char_traitsIcEENS_9allocatorIcEEEERNS4_IS6_EEE9__end_capB8ue170006Ev, symObjAddr: 0x4878, symBinAddr: 0x100005B0C, symSize: 0x28 }
  - { offsetInCU: 0x10185, offset: 0x10185, size: 0x8, addend: 0x0, symName: __ZNSt3__117__compressed_pairIPNS_12basic_stringIcNS_11char_traitsIcEENS_9allocatorIcEEEERNS4_IS6_EEEC2B8ue170006IDnS9_EEOT_OT0_, symObjAddr: 0x48A0, symBinAddr: 0x100005B34, symSize: 0x48 }
  - { offsetInCU: 0x101DC, offset: 0x101DC, size: 0x8, addend: 0x0, symName: __ZNSt3__122__compressed_pair_elemIRNS_9allocatorINS_12basic_stringIcNS_11char_traitsIcEENS1_IcEEEEEELi1ELb0EEC2B8ue170006IS8_vEEOT_, symObjAddr: 0x48E8, symBinAddr: 0x100005B7C, symSize: 0x20 }
  - { offsetInCU: 0x1021D, offset: 0x1021D, size: 0x8, addend: 0x0, symName: __ZNSt3__19allocatorINS_12basic_stringIcNS_11char_traitsIcEENS0_IcEEEEE8allocateB8ue170006Em, symObjAddr: 0x4908, symBinAddr: 0x100005B9C, symSize: 0x8C }
  - { offsetInCU: 0x10250, offset: 0x10250, size: 0x8, addend: 0x0, symName: __ZNSt3__117__compressed_pairIPNS_12basic_stringIcNS_11char_traitsIcEENS_9allocatorIcEEEERNS4_IS6_EEE6secondB8ue170006Ev, symObjAddr: 0x4994, symBinAddr: 0x100005C28, symSize: 0x28 }
  - { offsetInCU: 0x10275, offset: 0x10275, size: 0x8, addend: 0x0, symName: __ZNSt3__122__compressed_pair_elemIRNS_9allocatorINS_12basic_stringIcNS_11char_traitsIcEENS1_IcEEEEEELi1ELb0EE5__getB8ue170006Ev, symObjAddr: 0x49BC, symBinAddr: 0x100005C50, symSize: 0x18 }
  - { offsetInCU: 0x1029A, offset: 0x1029A, size: 0x8, addend: 0x0, symName: __ZNSt3__117__compressed_pairIPNS_12basic_stringIcNS_11char_traitsIcEENS_9allocatorIcEEEERNS4_IS6_EEE5firstB8ue170006Ev, symObjAddr: 0x49D4, symBinAddr: 0x100005C68, symSize: 0x24 }
  - { offsetInCU: 0x102BF, offset: 0x102BF, size: 0x8, addend: 0x0, symName: __ZNSt3__116reverse_iteratorIPNS_12basic_stringIcNS_11char_traitsIcEENS_9allocatorIcEEEEEC1B8ue170006ES7_, symObjAddr: 0x4B2C, symBinAddr: 0x100005DC0, symSize: 0x34 }
  - { offsetInCU: 0x102F6, offset: 0x102F6, size: 0x8, addend: 0x0, symName: __ZNKSt3__116reverse_iteratorIPNS_12basic_stringIcNS_11char_traitsIcEENS_9allocatorIcEEEEE4baseB8ue170006Ev, symObjAddr: 0x4B60, symBinAddr: 0x100005DF4, symSize: 0x18 }
  - { offsetInCU: 0x1031B, offset: 0x1031B, size: 0x8, addend: 0x0, symName: __ZNKSt3__16vectorINS_12basic_stringIcNS_11char_traitsIcEENS_9allocatorIcEEEENS4_IS6_EEE14__annotate_newB8ue170006Em, symObjAddr: 0x4BB4, symBinAddr: 0x100005E48, symSize: 0xC8 }
  - { offsetInCU: 0x1034F, offset: 0x1034F, size: 0x8, addend: 0x0, symName: __ZNSt3__129_AllocatorDestroyRangeReverseINS_9allocatorINS_12basic_stringIcNS_11char_traitsIcEENS1_IcEEEEEENS_16reverse_iteratorIPS6_EEEC1B8ue170006ERS7_RSA_SD_, symObjAddr: 0x4CC8, symBinAddr: 0x100005F5C, symSize: 0x44 }
  - { offsetInCU: 0x103A5, offset: 0x103A5, size: 0x8, addend: 0x0, symName: __ZNKSt3__116reverse_iteratorIPNS_12basic_stringIcNS_11char_traitsIcEENS_9allocatorIcEEEEEdeB8ue170006Ev, symObjAddr: 0x4D78, symBinAddr: 0x10000600C, symSize: 0x28 }
  - { offsetInCU: 0x103D8, offset: 0x103D8, size: 0x8, addend: 0x0, symName: __ZNSt3__116reverse_iteratorIPNS_12basic_stringIcNS_11char_traitsIcEENS_9allocatorIcEEEEEppB8ue170006Ev, symObjAddr: 0x4DA0, symBinAddr: 0x100006034, symSize: 0x20 }
  - { offsetInCU: 0x103FD, offset: 0x103FD, size: 0x8, addend: 0x0, symName: __ZNSt3__128__exception_guard_exceptionsINS_29_AllocatorDestroyRangeReverseINS_9allocatorINS_12basic_stringIcNS_11char_traitsIcEENS2_IcEEEEEENS_16reverse_iteratorIPS7_EEEEE10__completeB8ue170006Ev, symObjAddr: 0x4DC0, symBinAddr: 0x100006054, symSize: 0x1C }
  - { offsetInCU: 0x10422, offset: 0x10422, size: 0x8, addend: 0x0, symName: __ZNSt3__128__exception_guard_exceptionsINS_29_AllocatorDestroyRangeReverseINS_9allocatorINS_12basic_stringIcNS_11char_traitsIcEENS2_IcEEEEEENS_16reverse_iteratorIPS7_EEEEED1B8ue170006Ev, symObjAddr: 0x4DDC, symBinAddr: 0x100006070, symSize: 0x2C }
  - { offsetInCU: 0x1044B, offset: 0x1044B, size: 0x8, addend: 0x0, symName: __ZNSt3__128__exception_guard_exceptionsINS_29_AllocatorDestroyRangeReverseINS_9allocatorINS_12basic_stringIcNS_11char_traitsIcEENS2_IcEEEEEENS_16reverse_iteratorIPS7_EEEEEC1B8ue170006ESC_, symObjAddr: 0x4E08, symBinAddr: 0x10000609C, symSize: 0x34 }
  - { offsetInCU: 0x10483, offset: 0x10483, size: 0x8, addend: 0x0, symName: __ZNSt3__128__exception_guard_exceptionsINS_29_AllocatorDestroyRangeReverseINS_9allocatorINS_12basic_stringIcNS_11char_traitsIcEENS2_IcEEEEEENS_16reverse_iteratorIPS7_EEEEEC2B8ue170006ESC_, symObjAddr: 0x4E3C, symBinAddr: 0x1000060D0, symSize: 0x30 }
  - { offsetInCU: 0x104BB, offset: 0x104BB, size: 0x8, addend: 0x0, symName: __ZNSt3__129_AllocatorDestroyRangeReverseINS_9allocatorINS_12basic_stringIcNS_11char_traitsIcEENS1_IcEEEEEENS_16reverse_iteratorIPS6_EEEC2B8ue170006ERS7_RSA_SD_, symObjAddr: 0x4E6C, symBinAddr: 0x100006100, symSize: 0x38 }
  - { offsetInCU: 0x10516, offset: 0x10516, size: 0x8, addend: 0x0, symName: __ZNSt3__119__to_address_helperINS_16reverse_iteratorIPNS_12basic_stringIcNS_11char_traitsIcEENS_9allocatorIcEEEEEEvE6__callB8ue170006ERKS9_, symObjAddr: 0x4EA4, symBinAddr: 0x100006138, symSize: 0x4C }
  - { offsetInCU: 0x10539, offset: 0x10539, size: 0x8, addend: 0x0, symName: __ZNKSt3__116reverse_iteratorIPNS_12basic_stringIcNS_11char_traitsIcEENS_9allocatorIcEEEEEptB8ue170006Ev, symObjAddr: 0x4EF0, symBinAddr: 0x100006184, symSize: 0x24 }
  - { offsetInCU: 0x1055E, offset: 0x1055E, size: 0x8, addend: 0x0, symName: __ZNSt3__128__exception_guard_exceptionsINS_29_AllocatorDestroyRangeReverseINS_9allocatorINS_12basic_stringIcNS_11char_traitsIcEENS2_IcEEEEEENS_16reverse_iteratorIPS7_EEEEED2B8ue170006Ev, symObjAddr: 0x4F14, symBinAddr: 0x1000061A8, symSize: 0x48 }
  - { offsetInCU: 0x10587, offset: 0x10587, size: 0x8, addend: 0x0, symName: __ZNKSt3__129_AllocatorDestroyRangeReverseINS_9allocatorINS_12basic_stringIcNS_11char_traitsIcEENS1_IcEEEEEENS_16reverse_iteratorIPS6_EEEclB8ue170006Ev, symObjAddr: 0x4F5C, symBinAddr: 0x1000061F0, symSize: 0xB4 }
  - { offsetInCU: 0x105AD, offset: 0x105AD, size: 0x8, addend: 0x0, symName: __ZNSt3__116reverse_iteratorINS0_IPNS_12basic_stringIcNS_11char_traitsIcEENS_9allocatorIcEEEEEEEC1B8ue170006ES8_, symObjAddr: 0x5080, symBinAddr: 0x100006314, symSize: 0x3C }
  - { offsetInCU: 0x105E4, offset: 0x105E4, size: 0x8, addend: 0x0, symName: __ZNSt3__116reverse_iteratorINS0_IPNS_12basic_stringIcNS_11char_traitsIcEENS_9allocatorIcEEEEEEEppB8ue170006Ev, symObjAddr: 0x5140, symBinAddr: 0x1000063D4, symSize: 0x30 }
  - { offsetInCU: 0x10609, offset: 0x10609, size: 0x8, addend: 0x0, symName: __ZNKSt3__116reverse_iteratorINS0_IPNS_12basic_stringIcNS_11char_traitsIcEENS_9allocatorIcEEEEEEE4baseB8ue170006Ev, symObjAddr: 0x5170, symBinAddr: 0x100006404, symSize: 0x24 }
  - { offsetInCU: 0x10633, offset: 0x10633, size: 0x8, addend: 0x0, symName: __ZNSt3__119__to_address_helperINS_16reverse_iteratorINS1_IPNS_12basic_stringIcNS_11char_traitsIcEENS_9allocatorIcEEEEEEEEvE6__callB8ue170006ERKSA_, symObjAddr: 0x5194, symBinAddr: 0x100006428, symSize: 0x4C }
  - { offsetInCU: 0x10656, offset: 0x10656, size: 0x8, addend: 0x0, symName: __ZNKSt3__116reverse_iteratorINS0_IPNS_12basic_stringIcNS_11char_traitsIcEENS_9allocatorIcEEEEEEEptB8ue170006Ev, symObjAddr: 0x51E0, symBinAddr: 0x100006474, symSize: 0x24 }
  - { offsetInCU: 0x1067B, offset: 0x1067B, size: 0x8, addend: 0x0, symName: __ZNKSt3__116reverse_iteratorINS0_IPNS_12basic_stringIcNS_11char_traitsIcEENS_9allocatorIcEEEEEEEdeB8ue170006Ev, symObjAddr: 0x5204, symBinAddr: 0x100006498, symSize: 0x34 }
  - { offsetInCU: 0x106AE, offset: 0x106AE, size: 0x8, addend: 0x0, symName: __ZNSt3__116reverse_iteratorIPNS_12basic_stringIcNS_11char_traitsIcEENS_9allocatorIcEEEEEmmB8ue170006Ev, symObjAddr: 0x5238, symBinAddr: 0x1000064CC, symSize: 0x20 }
  - { offsetInCU: 0x106D3, offset: 0x106D3, size: 0x8, addend: 0x0, symName: __ZNSt3__116reverse_iteratorINS0_IPNS_12basic_stringIcNS_11char_traitsIcEENS_9allocatorIcEEEEEEEC2B8ue170006ES8_, symObjAddr: 0x5258, symBinAddr: 0x1000064EC, symSize: 0x2C }
  - { offsetInCU: 0x1070A, offset: 0x1070A, size: 0x8, addend: 0x0, symName: __ZNSt3__116reverse_iteratorIPNS_12basic_stringIcNS_11char_traitsIcEENS_9allocatorIcEEEEEC2B8ue170006ES7_, symObjAddr: 0x5284, symBinAddr: 0x100006518, symSize: 0x28 }
  - { offsetInCU: 0x10741, offset: 0x10741, size: 0x8, addend: 0x0, symName: __ZNSt3__114__split_bufferINS_12basic_stringIcNS_11char_traitsIcEENS_9allocatorIcEEEERNS4_IS6_EEED2Ev, symObjAddr: 0x52AC, symBinAddr: 0x100006540, symSize: 0x80 }
  - { offsetInCU: 0x1076C, offset: 0x1076C, size: 0x8, addend: 0x0, symName: __ZNSt3__114__split_bufferINS_12basic_stringIcNS_11char_traitsIcEENS_9allocatorIcEEEERNS4_IS6_EEE5clearB8ue170006Ev, symObjAddr: 0x532C, symBinAddr: 0x1000065C0, symSize: 0x28 }
  - { offsetInCU: 0x10791, offset: 0x10791, size: 0x8, addend: 0x0, symName: __ZNKSt3__114__split_bufferINS_12basic_stringIcNS_11char_traitsIcEENS_9allocatorIcEEEERNS4_IS6_EEE8capacityB8ue170006Ev, symObjAddr: 0x5354, symBinAddr: 0x1000065E8, symSize: 0x40 }
  - { offsetInCU: 0x107B6, offset: 0x107B6, size: 0x8, addend: 0x0, symName: __ZNSt3__114__split_bufferINS_12basic_stringIcNS_11char_traitsIcEENS_9allocatorIcEEEERNS4_IS6_EEE17__destruct_at_endB8ue170006EPS6_, symObjAddr: 0x5394, symBinAddr: 0x100006628, symSize: 0x2C }
  - { offsetInCU: 0x107E8, offset: 0x107E8, size: 0x8, addend: 0x0, symName: __ZNSt3__114__split_bufferINS_12basic_stringIcNS_11char_traitsIcEENS_9allocatorIcEEEERNS4_IS6_EEE17__destruct_at_endB8ue170006EPS6_NS_17integral_constantIbLb0EEE, symObjAddr: 0x53C0, symBinAddr: 0x100006654, symSize: 0x94 }
  - { offsetInCU: 0x10828, offset: 0x10828, size: 0x8, addend: 0x0, symName: __ZNKSt3__114__split_bufferINS_12basic_stringIcNS_11char_traitsIcEENS_9allocatorIcEEEERNS4_IS6_EEE9__end_capB8ue170006Ev, symObjAddr: 0x5454, symBinAddr: 0x1000066E8, symSize: 0x28 }
  - { offsetInCU: 0x1084D, offset: 0x1084D, size: 0x8, addend: 0x0, symName: __ZNKSt3__117__compressed_pairIPNS_12basic_stringIcNS_11char_traitsIcEENS_9allocatorIcEEEERNS4_IS6_EEE5firstB8ue170006Ev, symObjAddr: 0x547C, symBinAddr: 0x100006710, symSize: 0x24 }
  - { offsetInCU: 0x10872, offset: 0x10872, size: 0x8, addend: 0x0, symName: __ZNSt3__111char_traitsIcE6assignB8ue170006ERcRKc, symObjAddr: 0x54A0, symBinAddr: 0x100006734, symSize: 0x24 }
  - { offsetInCU: 0x108A3, offset: 0x108A3, size: 0x8, addend: 0x0, symName: __ZNSt3__112basic_stringIcNS_11char_traitsIcEENS_9allocatorIcEEE16__set_short_sizeB8ue170006Em, symObjAddr: 0x54C4, symBinAddr: 0x100006758, symSize: 0x78 }
  - { offsetInCU: 0x108D7, offset: 0x108D7, size: 0x8, addend: 0x0, symName: __ZNSt3__16vectorINS_12basic_stringIcNS_11char_traitsIcEENS_9allocatorIcEEEENS4_IS6_EEE11__make_iterB8ue170006EPS6_, symObjAddr: 0x553C, symBinAddr: 0x1000067D0, symSize: 0x30 }
  - { offsetInCU: 0x1090B, offset: 0x1090B, size: 0x8, addend: 0x0, symName: __ZNSt3__111__wrap_iterIPNS_12basic_stringIcNS_11char_traitsIcEENS_9allocatorIcEEEEEC1B8ue170006ES7_, symObjAddr: 0x556C, symBinAddr: 0x100006800, symSize: 0x34 }
  - { offsetInCU: 0x10942, offset: 0x10942, size: 0x8, addend: 0x0, symName: __ZNSt3__111__wrap_iterIPNS_12basic_stringIcNS_11char_traitsIcEENS_9allocatorIcEEEEEC2B8ue170006ES7_, symObjAddr: 0x55A0, symBinAddr: 0x100006834, symSize: 0x20 }
  - { offsetInCU: 0x10979, offset: 0x10979, size: 0x8, addend: 0x0, symName: __ZNKSt3__16vectorINS_12basic_stringIcNS_11char_traitsIcEENS_9allocatorIcEEEENS4_IS6_EEE6cbeginB8ue170006Ev, symObjAddr: 0x5608, symBinAddr: 0x10000689C, symSize: 0x2C }
  - { offsetInCU: 0x1099E, offset: 0x1099E, size: 0x8, addend: 0x0, symName: __ZNSt3__16vectorINS_12basic_stringIcNS_11char_traitsIcEENS_9allocatorIcEEEENS4_IS6_EEE17__destruct_at_endB8ue170006EPS6_, symObjAddr: 0x5634, symBinAddr: 0x1000068C8, symSize: 0x4C }
  - { offsetInCU: 0x109E1, offset: 0x109E1, size: 0x8, addend: 0x0, symName: __ZNKSt3__111__wrap_iterIPKNS_12basic_stringIcNS_11char_traitsIcEENS_9allocatorIcEEEEE4baseB8ue170006Ev, symObjAddr: 0x56C0, symBinAddr: 0x100006954, symSize: 0x18 }
  - { offsetInCU: 0x10A05, offset: 0x10A05, size: 0x8, addend: 0x0, symName: __ZNKSt3__16vectorINS_12basic_stringIcNS_11char_traitsIcEENS_9allocatorIcEEEENS4_IS6_EEE5beginB8ue170006Ev, symObjAddr: 0x56D8, symBinAddr: 0x10000696C, symSize: 0x30 }
  - { offsetInCU: 0x10A2C, offset: 0x10A2C, size: 0x8, addend: 0x0, symName: __ZNKSt3__16vectorINS_12basic_stringIcNS_11char_traitsIcEENS_9allocatorIcEEEENS4_IS6_EEE11__make_iterB8ue170006EPKS6_, symObjAddr: 0x5708, symBinAddr: 0x10000699C, symSize: 0x30 }
  - { offsetInCU: 0x10A60, offset: 0x10A60, size: 0x8, addend: 0x0, symName: __ZNSt3__111__wrap_iterIPKNS_12basic_stringIcNS_11char_traitsIcEENS_9allocatorIcEEEEEC1B8ue170006ES8_, symObjAddr: 0x5738, symBinAddr: 0x1000069CC, symSize: 0x34 }
  - { offsetInCU: 0x10A97, offset: 0x10A97, size: 0x8, addend: 0x0, symName: __ZNSt3__111__wrap_iterIPKNS_12basic_stringIcNS_11char_traitsIcEENS_9allocatorIcEEEEEC2B8ue170006ES8_, symObjAddr: 0x576C, symBinAddr: 0x100006A00, symSize: 0x20 }
  - { offsetInCU: 0x10ACE, offset: 0x10ACE, size: 0x8, addend: 0x0, symName: __ZNKSt3__16vectorINS_12basic_stringIcNS_11char_traitsIcEENS_9allocatorIcEEEENS4_IS6_EEE17__annotate_shrinkB8ue170006Em, symObjAddr: 0x578C, symBinAddr: 0x100006A20, symSize: 0xD0 }
  - { offsetInCU: 0x10B25, offset: 0x10B25, size: 0x8, addend: 0x0, symName: __ZNKSt3__111__move_loopINS_17_ClassicAlgPolicyEEclB8ue170006IPNS_12basic_stringIcNS_11char_traitsIcEENS_9allocatorIcEEEESA_SA_EENS_4pairIT_T1_EESC_T0_SD_, symObjAddr: 0x59F8, symBinAddr: 0x100006C8C, symSize: 0x90 }
  - { offsetInCU: 0x10B99, offset: 0x10B99, size: 0x8, addend: 0x0, symName: __ZNSt3__18_IterOpsINS_17_ClassicAlgPolicyEE11__iter_moveB8ue170006IRPNS_12basic_stringIcNS_11char_traitsIcEENS_9allocatorIcEEEEEENS_9enable_ifIXsr12is_referenceIDTdeclsr3stdE7declvalIRT_EEEEE5valueEDTclsr3stdE4movedeclsr3stdE7declvalISE_EEEEE4typeEOSD_, symObjAddr: 0x5B60, symBinAddr: 0x100006DF4, symSize: 0x28 }
  - { offsetInCU: 0x10BC5, offset: 0x10BC5, size: 0x8, addend: 0x0, symName: __ZNSt3__18_IterOpsINS_17_ClassicAlgPolicyEE25__validate_iter_referenceB8ue170006IRPNS_12basic_stringIcNS_11char_traitsIcEENS_9allocatorIcEEEEEEvv, symObjAddr: 0x5B88, symBinAddr: 0x100006E1C, symSize: 0x4 }
  - { offsetInCU: 0x10BE3, offset: 0x10BE3, size: 0x8, addend: 0x0, symName: __ZNSt3__118__unwrap_iter_implIPNS_12basic_stringIcNS_11char_traitsIcEENS_9allocatorIcEEEELb1EE8__unwrapB8ue170006ES7_, symObjAddr: 0x5B8C, symBinAddr: 0x100006E20, symSize: 0x24 }
  - { offsetInCU: 0x10C06, offset: 0x10C06, size: 0x8, addend: 0x0, symName: __ZNSt3__14pairIPNS_12basic_stringIcNS_11char_traitsIcEENS_9allocatorIcEEEES7_EC1B8ue170006ERKS7_SA_, symObjAddr: 0x5BB0, symBinAddr: 0x100006E44, symSize: 0x3C }
  - { offsetInCU: 0x10C4B, offset: 0x10C4B, size: 0x8, addend: 0x0, symName: __ZNSt3__14pairIPNS_12basic_stringIcNS_11char_traitsIcEENS_9allocatorIcEEEES7_EC2B8ue170006ERKS7_SA_, symObjAddr: 0x5BEC, symBinAddr: 0x100006E80, symSize: 0x34 }
  - { offsetInCU: 0x10C90, offset: 0x10C90, size: 0x8, addend: 0x0, symName: __ZNSt3__118__unwrap_iter_implIPNS_12basic_stringIcNS_11char_traitsIcEENS_9allocatorIcEEEELb1EE8__rewrapB8ue170006ES7_S7_, symObjAddr: 0x5C20, symBinAddr: 0x100006EB4, symSize: 0x58 }
  - { offsetInCU: 0x10CC1, offset: 0x10CC1, size: 0x8, addend: 0x0, symName: __ZNSt3__111__wrap_iterIPKNS_12basic_stringIcNS_11char_traitsIcEENS_9allocatorIcEEEEEC2B8ue170006IPS6_EERKNS0_IT_EEPNS_9enable_ifIXsr14is_convertibleISC_S8_EE5valueEvE4typeE, symObjAddr: 0x5C78, symBinAddr: 0x100006F0C, symSize: 0x40 }
  - { offsetInCU: 0x10D0C, offset: 0x10D0C, size: 0x8, addend: 0x0, symName: __ZNKSt3__111__wrap_iterIPNS_12basic_stringIcNS_11char_traitsIcEENS_9allocatorIcEEEEE4baseB8ue170006Ev, symObjAddr: 0x5CB8, symBinAddr: 0x100006F4C, symSize: 0x18 }
  - { offsetInCU: 0x10D31, offset: 0x10D31, size: 0x8, addend: 0x0, symName: __ZNSt3__114basic_iostreamIcNS_11char_traitsIcEEEC2B8ue170006EPNS_15basic_streambufIcS2_EE, symObjAddr: 0x5CD0, symBinAddr: 0x100006F64, symSize: 0xB4 }
  - { offsetInCU: 0x10D75, offset: 0x10D75, size: 0x8, addend: 0x0, symName: __ZNSt3__115basic_stringbufIcNS_11char_traitsIcEENS_9allocatorIcEEEC1B8ue170006Ej, symObjAddr: 0x5D84, symBinAddr: 0x100007018, symSize: 0x34 }
  - { offsetInCU: 0x10DAD, offset: 0x10DAD, size: 0x8, addend: 0x0, symName: __ZNSt3__113basic_ostreamIcNS_11char_traitsIcEEEC2B8ue170006Ev, symObjAddr: 0x5DB8, symBinAddr: 0x10000704C, symSize: 0x34 }
  - { offsetInCU: 0x10DE2, offset: 0x10DE2, size: 0x8, addend: 0x0, symName: __ZNSt3__115basic_stringbufIcNS_11char_traitsIcEENS_9allocatorIcEEEC2B8ue170006Ej, symObjAddr: 0x5DEC, symBinAddr: 0x100007080, symSize: 0x90 }
  - { offsetInCU: 0x3EB8, offset: 0x14E16, size: 0x8, addend: 0x0, symName: __ZNSt3__117__floyd_sift_downB8ue170006INS_17_ClassicAlgPolicyERNS_7greaterI4NodoEENS_11__wrap_iterIPS3_EEEET1_S9_OT0_NS_15iterator_traitsIS9_E15difference_typeE, symObjAddr: 0x2A58, symBinAddr: 0x1000090AC, symSize: 0x148 }
  - { offsetInCU: 0x5F2E, offset: 0x16E8C, size: 0x8, addend: 0x0, symName: __ZNSt3__1eqB8ue170006IP4NodoEEbRKNS_11__wrap_iterIT_EES7_, symObjAddr: 0x14A8, symBinAddr: 0x100008488, symSize: 0x48 }
  - { offsetInCU: 0x5F71, offset: 0x16ECF, size: 0x8, addend: 0x0, symName: __ZNSt3__14findB8ue170006INS_11__wrap_iterIP4NodoEES2_EET_S5_S5_RKT0_, symObjAddr: 0x14F0, symBinAddr: 0x1000084D0, symSize: 0x78 }
  - { offsetInCU: 0x5FD9, offset: 0x16F37, size: 0x8, addend: 0x0, symName: __ZNSt3__1neB8ue170006IP4NodoEEbRKNS_11__wrap_iterIT_EES7_, symObjAddr: 0x15E0, symBinAddr: 0x1000085C0, symSize: 0x34 }
  - { offsetInCU: 0x601C, offset: 0x16F7A, size: 0x8, addend: 0x0, symName: __ZNSt3__19push_heapB8ue170006INS_11__wrap_iterIP4NodoEENS_7greaterIS2_EEEEvT_S7_T0_, symObjAddr: 0x24E8, symBinAddr: 0x100008B3C, symSize: 0x40 }
  - { offsetInCU: 0x6073, offset: 0x16FD1, size: 0x8, addend: 0x0, symName: __ZNSt3__111__push_heapB8ue170006INS_17_ClassicAlgPolicyENS_11__wrap_iterIP4NodoEENS_7greaterIS3_EEEEvT0_S8_RT1_, symObjAddr: 0x2528, symBinAddr: 0x100008B7C, symSize: 0x5C }
  - { offsetInCU: 0x60E1, offset: 0x1703F, size: 0x8, addend: 0x0, symName: __ZNSt3__1miB8ue170006IP4NodoS2_EENS_11__wrap_iterIT_E15difference_typeERKS5_RKNS3_IT0_EE, symObjAddr: 0x2584, symBinAddr: 0x100008BD8, symSize: 0x48 }
  - { offsetInCU: 0x612D, offset: 0x1708B, size: 0x8, addend: 0x0, symName: __ZNSt3__19__sift_upB8ue170006INS_17_ClassicAlgPolicyERNS_7greaterI4NodoEENS_11__wrap_iterIPS3_EEEEvT1_S9_OT0_NS_15iterator_traitsIS9_E15difference_typeE, symObjAddr: 0x25CC, symBinAddr: 0x100008C20, symSize: 0x164 }
  - { offsetInCU: 0x624A, offset: 0x171A8, size: 0x8, addend: 0x0, symName: __ZNSt3__18pop_heapB8ue170006INS_11__wrap_iterIP4NodoEENS_7greaterIS2_EEEEvT_S7_T0_, symObjAddr: 0x28A4, symBinAddr: 0x100008EF8, symSize: 0x58 }
  - { offsetInCU: 0x62AF, offset: 0x1720D, size: 0x8, addend: 0x0, symName: __ZNSt3__110__pop_heapB8ue170006INS_17_ClassicAlgPolicyENS_7greaterI4NodoEENS_11__wrap_iterIPS3_EEEEvT1_S8_RT0_NS_15iterator_traitsIS8_E15difference_typeE, symObjAddr: 0x2928, symBinAddr: 0x100008F7C, symSize: 0x130 }
  - { offsetInCU: 0x6363, offset: 0x172C1, size: 0x8, addend: 0x0, symName: __ZNSt3__119__allocate_at_leastB8ue170006INS_9allocatorI4NodoEEEENS_19__allocation_resultINS_16allocator_traitsIT_E7pointerEEERS6_m, symObjAddr: 0x41E4, symBinAddr: 0x100009AA8, symSize: 0x40 }
  - { offsetInCU: 0x63A6, offset: 0x17304, size: 0x8, addend: 0x0, symName: __ZNSt3__142__uninitialized_allocator_move_if_noexceptB8ue170006INS_9allocatorI4NodoEENS_16reverse_iteratorIPS2_EES6_S6_EET2_RT_T0_T1_S7_, symObjAddr: 0x444C, symBinAddr: 0x100009C90, symSize: 0x134 }
  - { offsetInCU: 0x6446, offset: 0x173A4, size: 0x8, addend: 0x0, symName: __ZNSt3__14swapB8ue170006IP4NodoEEvRT_S4_, symObjAddr: 0x45CC, symBinAddr: 0x100009E10, symSize: 0x3C }
  - { offsetInCU: 0x6497, offset: 0x173F5, size: 0x8, addend: 0x0, symName: __ZNSt3__122__make_exception_guardB8ue170006INS_29_AllocatorDestroyRangeReverseINS_9allocatorI4NodoEENS_16reverse_iteratorIPS3_EEEEEENS_28__exception_guard_exceptionsIT_EESA_, symObjAddr: 0x46D0, symBinAddr: 0x100009F14, symSize: 0x4C }
  - { offsetInCU: 0x64CD, offset: 0x1742B, size: 0x8, addend: 0x0, symName: __ZNSt3__1neB8ue170006IP4NodoS2_EEbRKNS_16reverse_iteratorIT_EERKNS3_IT0_EE, symObjAddr: 0x4760, symBinAddr: 0x100009FA4, symSize: 0x48 }
  - { offsetInCU: 0x6519, offset: 0x17477, size: 0x8, addend: 0x0, symName: __ZNSt3__112__to_addressB8ue170006INS_16reverse_iteratorIP4NodoEEvEEu7__decayIDTclsr19__to_address_helperIT_EE6__callclsr3stdE7declvalIRKS5_EEEEES7_, symObjAddr: 0x47DC, symBinAddr: 0x10000A020, symSize: 0x24 }
  - { offsetInCU: 0x6578, offset: 0x174D6, size: 0x8, addend: 0x0, symName: __ZNSt3__119__allocator_destroyB8ue170006INS_9allocatorI4NodoEENS_16reverse_iteratorINS4_IPS2_EEEES7_EEvRT_T0_T1_, symObjAddr: 0x4ACC, symBinAddr: 0x10000A310, symSize: 0x70 }
  - { offsetInCU: 0x65DD, offset: 0x1753B, size: 0x8, addend: 0x0, symName: __ZNSt3__1neB8ue170006INS_16reverse_iteratorIP4NodoEES4_EEbRKNS1_IT_EERKNS1_IT0_EE, symObjAddr: 0x4B78, symBinAddr: 0x10000A3BC, symSize: 0x60 }
  - { offsetInCU: 0x6629, offset: 0x17587, size: 0x8, addend: 0x0, symName: __ZNSt3__112__to_addressB8ue170006INS_16reverse_iteratorINS1_IP4NodoEEEEvEEu7__decayIDTclsr19__to_address_helperIT_EE6__callclsr3stdE7declvalIRKS6_EEEEES8_, symObjAddr: 0x4BD8, symBinAddr: 0x10000A41C, symSize: 0x24 }
  - { offsetInCU: 0x6688, offset: 0x175E6, size: 0x8, addend: 0x0, symName: __ZNSt3__113__rewrap_iterB8ue170006INS_11__wrap_iterIP4NodoEES3_NS_18__unwrap_iter_implIS4_Lb1EEEEET_S7_T0_, symObjAddr: 0x4FE0, symBinAddr: 0x10000A824, symSize: 0x60 }
  - { offsetInCU: 0x66DD, offset: 0x1763B, size: 0x8, addend: 0x0, symName: __ZNSt3__111__find_implB8ue170006IP4NodoS2_S1_NS_10__identityEEET_S4_T0_RKT1_RT2_, symObjAddr: 0x5040, symBinAddr: 0x10000A884, symSize: 0x7C }
  - { offsetInCU: 0x6757, offset: 0x176B5, size: 0x8, addend: 0x0, symName: __ZNSt3__113__unwrap_iterB8ue170006INS_11__wrap_iterIP4NodoEENS_18__unwrap_iter_implIS4_Lb1EEELi0EEEDTclsrT0_8__unwrapclsr3stdE7declvalIT_EEEES8_, symObjAddr: 0x50BC, symBinAddr: 0x10000A900, symSize: 0x2C }
  - { offsetInCU: 0x67EE, offset: 0x1774C, size: 0x8, addend: 0x0, symName: __ZNSt3__112__to_addressB8ue170006INS_11__wrap_iterIP4NodoEEvEEu7__decayIDTclsr19__to_address_helperIT_EE6__callclsr3stdE7declvalIRKS5_EEEEES7_, symObjAddr: 0x5144, symBinAddr: 0x10000A988, symSize: 0x24 }
  - { offsetInCU: 0x68C9, offset: 0x17827, size: 0x8, addend: 0x0, symName: __ZNSt3__18__invokeB8ue170006IRNS_10__identityEJR4NodoEEEDTclclsr3stdE7declvalIT_EEspclsr3stdE7declvalIT0_EEEEOS5_DpOS6_, symObjAddr: 0x51C4, symBinAddr: 0x10000AA08, symSize: 0x2C }
  - { offsetInCU: 0x6D39, offset: 0x17C97, size: 0x8, addend: 0x0, symName: __ZNSt3__16vectorI4NodoNS_9allocatorIS1_EEE26__swap_out_circular_bufferERNS_14__split_bufferIS1_RS3_EE, symObjAddr: 0x3C24, symBinAddr: 0x10000971C, symSize: 0x110 }
  - { offsetInCU: 0x8ED2, offset: 0x19E30, size: 0x8, addend: 0x0, symName: __ZN9MatrizLabC2EPPiNSt3__14pairIiiEES4_ii, symObjAddr: 0x0, symBinAddr: 0x100007110, symSize: 0x5D4 }
  - { offsetInCU: 0x8FB8, offset: 0x19F16, size: 0x8, addend: 0x0, symName: __ZNSt3__14pairIiiEC1B8ue170006Ev, symObjAddr: 0x5D4, symBinAddr: 0x1000076E4, symSize: 0x2C }
  - { offsetInCU: 0x8FE1, offset: 0x19F3F, size: 0x8, addend: 0x0, symName: __ZNSt3__114priority_queueI4NodoNS_6vectorIS1_NS_9allocatorIS1_EEEENS_7greaterIS1_EEEC1B8ue170006Ev, symObjAddr: 0x600, symBinAddr: 0x100007710, symSize: 0x2C }
  - { offsetInCU: 0x900A, offset: 0x19F68, size: 0x8, addend: 0x0, symName: __ZNSt3__16vectorI4NodoNS_9allocatorIS1_EEEC1B8ue170006Ev, symObjAddr: 0x62C, symBinAddr: 0x10000773C, symSize: 0x2C }
  - { offsetInCU: 0x9033, offset: 0x19F91, size: 0x8, addend: 0x0, symName: __ZNSt3__14pairIiiEaSB8ue170006ERKS1_, symObjAddr: 0x658, symBinAddr: 0x100007768, symSize: 0x30 }
  - { offsetInCU: 0x9066, offset: 0x19FC4, size: 0x8, addend: 0x0, symName: __ZN4NodoC1Ev, symObjAddr: 0x688, symBinAddr: 0x100007798, symSize: 0x2C }
  - { offsetInCU: 0x908F, offset: 0x19FED, size: 0x8, addend: 0x0, symName: __ZN4Nodo9set_padreEii, symObjAddr: 0x6B4, symBinAddr: 0x1000077C4, symSize: 0x4C }
  - { offsetInCU: 0x90D0, offset: 0x1A02E, size: 0x8, addend: 0x0, symName: __ZN4NodoaSERKS_, symObjAddr: 0x700, symBinAddr: 0x100007810, symSize: 0x64 }
  - { offsetInCU: 0x9102, offset: 0x1A060, size: 0x8, addend: 0x0, symName: __ZNSt3__114priority_queueI4NodoNS_6vectorIS1_NS_9allocatorIS1_EEEENS_7greaterIS1_EEE4pushERKS1_, symObjAddr: 0x764, symBinAddr: 0x100007874, symSize: 0x58 }
  - { offsetInCU: 0x9138, offset: 0x1A096, size: 0x8, addend: 0x0, symName: __ZNKSt3__114priority_queueI4NodoNS_6vectorIS1_NS_9allocatorIS1_EEEENS_7greaterIS1_EEE5emptyB8ue170006Ev, symObjAddr: 0x7BC, symBinAddr: 0x1000078CC, symSize: 0x28 }
  - { offsetInCU: 0x915D, offset: 0x1A0BB, size: 0x8, addend: 0x0, symName: __ZNKSt3__114priority_queueI4NodoNS_6vectorIS1_NS_9allocatorIS1_EEEENS_7greaterIS1_EEE3topB8ue170006Ev, symObjAddr: 0x7E4, symBinAddr: 0x1000078F4, symSize: 0x24 }
  - { offsetInCU: 0x9181, offset: 0x1A0DF, size: 0x8, addend: 0x0, symName: __ZNSt3__114priority_queueI4NodoNS_6vectorIS1_NS_9allocatorIS1_EEEENS_7greaterIS1_EEE3popEv, symObjAddr: 0x808, symBinAddr: 0x100007918, symSize: 0x50 }
  - { offsetInCU: 0x91A8, offset: 0x1A106, size: 0x8, addend: 0x0, symName: __ZNK4NodoeqERKS_, symObjAddr: 0x858, symBinAddr: 0x100007968, symSize: 0x68 }
  - { offsetInCU: 0x91DB, offset: 0x1A139, size: 0x8, addend: 0x0, symName: __ZN9MatrizLab18print_matriz_nodosEv, symObjAddr: 0x98C, symBinAddr: 0x1000079D0, symSize: 0x244 }
  - { offsetInCU: 0x923C, offset: 0x1A19A, size: 0x8, addend: 0x0, symName: __ZN9MatrizLab26print_matriz_nodos_coloresEv, symObjAddr: 0xBD0, symBinAddr: 0x100007C14, symSize: 0x238 }
  - { offsetInCU: 0x929C, offset: 0x1A1FA, size: 0x8, addend: 0x0, symName: __ZNSt3__16vectorI4NodoNS_9allocatorIS1_EEE9push_backB8ue170006ERKS1_, symObjAddr: 0xE08, symBinAddr: 0x100007E4C, symSize: 0x6C }
  - { offsetInCU: 0x92D2, offset: 0x1A230, size: 0x8, addend: 0x0, symName: __ZN4Nodo5get_xEv, symObjAddr: 0xE74, symBinAddr: 0x100007EB8, symSize: 0x18 }
  - { offsetInCU: 0x92F7, offset: 0x1A255, size: 0x8, addend: 0x0, symName: __ZN4Nodo5get_yEv, symObjAddr: 0xE8C, symBinAddr: 0x100007ED0, symSize: 0x18 }
  - { offsetInCU: 0x931C, offset: 0x1A27A, size: 0x8, addend: 0x0, symName: __ZN9MatrizLab15procesar_vecinoEiiiR4Nodo, symObjAddr: 0xEA4, symBinAddr: 0x100007EE8, symSize: 0x238 }
  - { offsetInCU: 0x93B6, offset: 0x1A314, size: 0x8, addend: 0x0, symName: __ZN9MatrizLabC1EPPiNSt3__14pairIiiEES4_ii, symObjAddr: 0x1140, symBinAddr: 0x100008120, symSize: 0x54 }
  - { offsetInCU: 0x9427, offset: 0x1A385, size: 0x8, addend: 0x0, symName: __ZN4Nodo9get_costeEv, symObjAddr: 0x1194, symBinAddr: 0x100008174, symSize: 0x18 }
  - { offsetInCU: 0x944C, offset: 0x1A3AA, size: 0x8, addend: 0x0, symName: __ZN9MatrizLab15actualizar_nodoER4Nodo, symObjAddr: 0x11AC, symBinAddr: 0x10000818C, symSize: 0x2A0 }
  - { offsetInCU: 0x9511, offset: 0x1A46F, size: 0x8, addend: 0x0, symName: __ZN4NodoC1Eii, symObjAddr: 0x144C, symBinAddr: 0x10000842C, symSize: 0x3C }
  - { offsetInCU: 0x9556, offset: 0x1A4B4, size: 0x8, addend: 0x0, symName: __ZN4Nodo9set_paredEv, symObjAddr: 0x1488, symBinAddr: 0x100008468, symSize: 0x20 }
  - { offsetInCU: 0x957A, offset: 0x1A4D8, size: 0x8, addend: 0x0, symName: __ZNSt3__16vectorI4NodoNS_9allocatorIS1_EEE5beginB8ue170006Ev, symObjAddr: 0x1568, symBinAddr: 0x100008548, symSize: 0x30 }
  - { offsetInCU: 0x95A0, offset: 0x1A4FE, size: 0x8, addend: 0x0, symName: __ZNSt3__16vectorI4NodoNS_9allocatorIS1_EEE3endB8ue170006Ev, symObjAddr: 0x1598, symBinAddr: 0x100008578, symSize: 0x30 }
  - { offsetInCU: 0x95C7, offset: 0x1A525, size: 0x8, addend: 0x0, symName: __ZN4Nodo19get_coste_acumuladoEv, symObjAddr: 0x15C8, symBinAddr: 0x1000085A8, symSize: 0x18 }
  - { offsetInCU: 0x95EC, offset: 0x1A54A, size: 0x8, addend: 0x0, symName: __ZNKSt3__111__wrap_iterIP4NodoEdeB8ue170006Ev, symObjAddr: 0x1614, symBinAddr: 0x1000085F4, symSize: 0x18 }
  - { offsetInCU: 0x9611, offset: 0x1A56F, size: 0x8, addend: 0x0, symName: __ZNSt3__111__wrap_iterIP4NodoEppB8ue170006Ev, symObjAddr: 0x162C, symBinAddr: 0x10000860C, symSize: 0x20 }
  - { offsetInCU: 0x9636, offset: 0x1A594, size: 0x8, addend: 0x0, symName: __ZN9MatrizLab15matriz_nodos_ssEv, symObjAddr: 0x164C, symBinAddr: 0x10000862C, symSize: 0x2F0 }
  - { offsetInCU: 0x9699, offset: 0x1A5F7, size: 0x8, addend: 0x0, symName: __ZN4NodoC2Ev, symObjAddr: 0x1ABC, symBinAddr: 0x10000891C, symSize: 0x34 }
  - { offsetInCU: 0x96C2, offset: 0x1A620, size: 0x8, addend: 0x0, symName: __ZN4NodoC2Eii, symObjAddr: 0x1BC0, symBinAddr: 0x100008950, symSize: 0x5C }
  - { offsetInCU: 0x970C, offset: 0x1A66A, size: 0x8, addend: 0x0, symName: __ZNSt3__14pairIiiEC2B8ue170006Ev, symObjAddr: 0x1DA8, symBinAddr: 0x1000089AC, symSize: 0x1C }
  - { offsetInCU: 0x9735, offset: 0x1A693, size: 0x8, addend: 0x0, symName: __ZNSt3__114priority_queueI4NodoNS_6vectorIS1_NS_9allocatorIS1_EEEENS_7greaterIS1_EEEC2B8ue170006Ev, symObjAddr: 0x1DC4, symBinAddr: 0x1000089C8, symSize: 0x2C }
  - { offsetInCU: 0x975E, offset: 0x1A6BC, size: 0x8, addend: 0x0, symName: __ZNSt3__16vectorI4NodoNS_9allocatorIS1_EEEC2B8ue170006Ev, symObjAddr: 0x1DF0, symBinAddr: 0x1000089F4, symSize: 0x44 }
  - { offsetInCU: 0x9791, offset: 0x1A6EF, size: 0x8, addend: 0x0, symName: __ZNSt3__117__compressed_pairIP4NodoNS_9allocatorIS1_EEEC1B8ue170006IDnNS_18__default_init_tagEEEOT_OT0_, symObjAddr: 0x1E34, symBinAddr: 0x100008A38, symSize: 0x3C }
  - { offsetInCU: 0x97E8, offset: 0x1A746, size: 0x8, addend: 0x0, symName: __ZNSt3__117__compressed_pairIP4NodoNS_9allocatorIS1_EEEC2B8ue170006IDnNS_18__default_init_tagEEEOT_OT0_, symObjAddr: 0x1E70, symBinAddr: 0x100008A74, symSize: 0x40 }
  - { offsetInCU: 0x983F, offset: 0x1A79D, size: 0x8, addend: 0x0, symName: __ZNSt3__122__compressed_pair_elemIP4NodoLi0ELb0EEC2B8ue170006IDnvEEOT_, symObjAddr: 0x1EB0, symBinAddr: 0x100008AB4, symSize: 0x1C }
  - { offsetInCU: 0x9880, offset: 0x1A7DE, size: 0x8, addend: 0x0, symName: __ZNSt3__122__compressed_pair_elemINS_9allocatorI4NodoEELi1ELb1EEC2B8ue170006ENS_18__default_init_tagE, symObjAddr: 0x1ECC, symBinAddr: 0x100008AD0, symSize: 0x2C }
  - { offsetInCU: 0x98B4, offset: 0x1A812, size: 0x8, addend: 0x0, symName: __ZNSt3__19allocatorI4NodoEC2B8ue170006Ev, symObjAddr: 0x1EF8, symBinAddr: 0x100008AFC, symSize: 0x2C }
  - { offsetInCU: 0x98DD, offset: 0x1A83B, size: 0x8, addend: 0x0, symName: __ZNSt3__116__non_trivial_ifILb1ENS_9allocatorI4NodoEEEC2B8ue170006Ev, symObjAddr: 0x1F24, symBinAddr: 0x100008B28, symSize: 0x14 }
  - { offsetInCU: 0x9906, offset: 0x1A864, size: 0x8, addend: 0x0, symName: __ZNKSt3__111__wrap_iterIP4NodoE4baseB8ue170006Ev, symObjAddr: 0x2730, symBinAddr: 0x100008D84, symSize: 0x18 }
  - { offsetInCU: 0x992B, offset: 0x1A889, size: 0x8, addend: 0x0, symName: __ZNKSt3__111__wrap_iterIP4NodoEplB8ue170006El, symObjAddr: 0x2748, symBinAddr: 0x100008D9C, symSize: 0x3C }
  - { offsetInCU: 0x996C, offset: 0x1A8CA, size: 0x8, addend: 0x0, symName: __ZNKSt3__17greaterI4NodoEclB8ue170006ERKS1_S4_, symObjAddr: 0x2784, symBinAddr: 0x100008DD8, symSize: 0x34 }
  - { offsetInCU: 0x99AF, offset: 0x1A90D, size: 0x8, addend: 0x0, symName: __ZNSt3__111__wrap_iterIP4NodoEmmB8ue170006Ev, symObjAddr: 0x27B8, symBinAddr: 0x100008E0C, symSize: 0x20 }
  - { offsetInCU: 0x99D9, offset: 0x1A937, size: 0x8, addend: 0x0, symName: __ZNSt3__18_IterOpsINS_17_ClassicAlgPolicyEE11__iter_moveB8ue170006IRNS_11__wrap_iterIP4NodoEEEENS_9enable_ifIXsr12is_referenceIDTdeclsr3stdE7declvalIRT_EEEEE5valueEDTclsr3stdE4movedeclsr3stdE7declvalISB_EEEEE4typeEOSA_, symObjAddr: 0x27D8, symBinAddr: 0x100008E2C, symSize: 0x28 }
  - { offsetInCU: 0x9A05, offset: 0x1A963, size: 0x8, addend: 0x0, symName: __ZNSt3__111__wrap_iterIP4NodoEpLB8ue170006El, symObjAddr: 0x2800, symBinAddr: 0x100008E54, symSize: 0x30 }
  - { offsetInCU: 0x9A38, offset: 0x1A996, size: 0x8, addend: 0x0, symName: __ZNK4NodogtERKS_, symObjAddr: 0x2830, symBinAddr: 0x100008E84, symSize: 0x30 }
  - { offsetInCU: 0x9A6B, offset: 0x1A9C9, size: 0x8, addend: 0x0, symName: __ZNSt3__18_IterOpsINS_17_ClassicAlgPolicyEE25__validate_iter_referenceB8ue170006IRNS_11__wrap_iterIP4NodoEEEEvv, symObjAddr: 0x2860, symBinAddr: 0x100008EB4, symSize: 0x4 }
  - { offsetInCU: 0x9A89, offset: 0x1A9E7, size: 0x8, addend: 0x0, symName: __ZNKSt3__16vectorI4NodoNS_9allocatorIS1_EEE5emptyB8ue170006Ev, symObjAddr: 0x2864, symBinAddr: 0x100008EB8, symSize: 0x28 }
  - { offsetInCU: 0x9AAE, offset: 0x1AA0C, size: 0x8, addend: 0x0, symName: __ZNKSt3__16vectorI4NodoNS_9allocatorIS1_EEE5frontB8ue170006Ev, symObjAddr: 0x288C, symBinAddr: 0x100008EE0, symSize: 0x18 }
  - { offsetInCU: 0x9AD2, offset: 0x1AA30, size: 0x8, addend: 0x0, symName: __ZNSt3__16vectorI4NodoNS_9allocatorIS1_EEE8pop_backEv, symObjAddr: 0x28FC, symBinAddr: 0x100008F50, symSize: 0x2C }
  - { offsetInCU: 0x9AF9, offset: 0x1AA57, size: 0x8, addend: 0x0, symName: __ZNSt3__16vectorI4NodoNS_9allocatorIS1_EEE17__destruct_at_endB8ue170006EPS1_, symObjAddr: 0x2BA0, symBinAddr: 0x1000091F4, symSize: 0x4C }
  - { offsetInCU: 0x9B3C, offset: 0x1AA9A, size: 0x8, addend: 0x0, symName: __ZNKSt3__16vectorI4NodoNS_9allocatorIS1_EEE17__annotate_shrinkB8ue170006Em, symObjAddr: 0x2BEC, symBinAddr: 0x100009240, symSize: 0xD0 }
  - { offsetInCU: 0x9B70, offset: 0x1AACE, size: 0x8, addend: 0x0, symName: __ZNSt3__16vectorI4NodoNS_9allocatorIS1_EEE9__end_capB8ue170006Ev, symObjAddr: 0x3818, symBinAddr: 0x100009310, symSize: 0x28 }
  - { offsetInCU: 0x9B95, offset: 0x1AAF3, size: 0x8, addend: 0x0, symName: __ZNSt3__16vectorI4NodoNS_9allocatorIS1_EEE22__construct_one_at_endB8ue170006IJRKS1_EEEvDpOT_, symObjAddr: 0x3840, symBinAddr: 0x100009338, symSize: 0x98 }
  - { offsetInCU: 0x9BE2, offset: 0x1AB40, size: 0x8, addend: 0x0, symName: __ZNSt3__16vectorI4NodoNS_9allocatorIS1_EEE21__push_back_slow_pathIRKS1_EEvOT_, symObjAddr: 0x38D8, symBinAddr: 0x1000093D0, symSize: 0xE0 }
  - { offsetInCU: 0x9C3F, offset: 0x1AB9D, size: 0x8, addend: 0x0, symName: __ZNSt3__117__compressed_pairIP4NodoNS_9allocatorIS1_EEE5firstB8ue170006Ev, symObjAddr: 0x39B8, symBinAddr: 0x1000094B0, symSize: 0x24 }
  - { offsetInCU: 0x9C64, offset: 0x1ABC2, size: 0x8, addend: 0x0, symName: __ZNSt3__122__compressed_pair_elemIP4NodoLi0ELb0EE5__getB8ue170006Ev, symObjAddr: 0x39DC, symBinAddr: 0x1000094D4, symSize: 0x14 }
  - { offsetInCU: 0x9CA2, offset: 0x1AC00, size: 0x8, addend: 0x0, symName: __ZNSt3__16vectorI4NodoNS_9allocatorIS1_EEE21_ConstructTransactionC1B8ue170006ERS4_m, symObjAddr: 0x39F0, symBinAddr: 0x1000094E8, symSize: 0x3C }
  - { offsetInCU: 0x9CE9, offset: 0x1AC47, size: 0x8, addend: 0x0, symName: __ZNSt3__116allocator_traitsINS_9allocatorI4NodoEEE9constructB8ue170006IS2_JRKS2_EvEEvRS3_PT_DpOT0_, symObjAddr: 0x3A2C, symBinAddr: 0x100009524, symSize: 0x34 }
  - { offsetInCU: 0x9D40, offset: 0x1AC9E, size: 0x8, addend: 0x0, symName: __ZNSt3__16vectorI4NodoNS_9allocatorIS1_EEE21_ConstructTransactionD1B8ue170006Ev, symObjAddr: 0x3A60, symBinAddr: 0x100009558, symSize: 0x2C }
  - { offsetInCU: 0x9D69, offset: 0x1ACC7, size: 0x8, addend: 0x0, symName: __ZNSt3__16vectorI4NodoNS_9allocatorIS1_EEE21_ConstructTransactionC2B8ue170006ERS4_m, symObjAddr: 0x3A8C, symBinAddr: 0x100009584, symSize: 0x4C }
  - { offsetInCU: 0x9DB0, offset: 0x1AD0E, size: 0x8, addend: 0x0, symName: __ZNSt3__19allocatorI4NodoE9constructB8ue170006IS1_JRKS1_EEEvPT_DpOT0_, symObjAddr: 0x3AD8, symBinAddr: 0x1000095D0, symSize: 0x34 }
  - { offsetInCU: 0x9E05, offset: 0x1AD63, size: 0x8, addend: 0x0, symName: __ZNSt3__16vectorI4NodoNS_9allocatorIS1_EEE21_ConstructTransactionD2B8ue170006Ev, symObjAddr: 0x3B0C, symBinAddr: 0x100009604, symSize: 0x20 }
  - { offsetInCU: 0x9E2D, offset: 0x1AD8B, size: 0x8, addend: 0x0, symName: __ZNKSt3__16vectorI4NodoNS_9allocatorIS1_EEE11__recommendB8ue170006Em, symObjAddr: 0x3B2C, symBinAddr: 0x100009624, symSize: 0xB4 }
  - { offsetInCU: 0x9E81, offset: 0x1ADDF, size: 0x8, addend: 0x0, symName: __ZNSt3__114__split_bufferI4NodoRNS_9allocatorIS1_EEEC1EmmS4_, symObjAddr: 0x3BE0, symBinAddr: 0x1000096D8, symSize: 0x44 }
  - { offsetInCU: 0x9ED6, offset: 0x1AE34, size: 0x8, addend: 0x0, symName: __ZNSt3__114__split_bufferI4NodoRNS_9allocatorIS1_EEED1Ev, symObjAddr: 0x3D34, symBinAddr: 0x10000982C, symSize: 0x2C }
  - { offsetInCU: 0x9F00, offset: 0x1AE5E, size: 0x8, addend: 0x0, symName: __ZNKSt3__16vectorI4NodoNS_9allocatorIS1_EEE8max_sizeEv, symObjAddr: 0x3D60, symBinAddr: 0x100009858, symSize: 0x74 }
  - { offsetInCU: 0x9F27, offset: 0x1AE85, size: 0x8, addend: 0x0, symName: __ZNKSt3__16vectorI4NodoNS_9allocatorIS1_EEE20__throw_length_errorB8ue170006Ev, symObjAddr: 0x3DD4, symBinAddr: 0x1000098CC, symSize: 0x1C }
  - { offsetInCU: 0x9F56, offset: 0x1AEB4, size: 0x8, addend: 0x0, symName: __ZNSt3__116allocator_traitsINS_9allocatorI4NodoEEE8max_sizeB8ue170006IS3_vEEmRKS3_, symObjAddr: 0x3E48, symBinAddr: 0x1000098E8, symSize: 0x24 }
  - { offsetInCU: 0x9F84, offset: 0x1AEE2, size: 0x8, addend: 0x0, symName: __ZNKSt3__16vectorI4NodoNS_9allocatorIS1_EEE7__allocB8ue170006Ev, symObjAddr: 0x3E6C, symBinAddr: 0x10000990C, symSize: 0x28 }
  - { offsetInCU: 0x9FA9, offset: 0x1AF07, size: 0x8, addend: 0x0, symName: __ZNKSt3__19allocatorI4NodoE8max_sizeB8ue170006Ev, symObjAddr: 0x3F30, symBinAddr: 0x100009934, symSize: 0x20 }
  - { offsetInCU: 0x9FCE, offset: 0x1AF2C, size: 0x8, addend: 0x0, symName: __ZNKSt3__117__compressed_pairIP4NodoNS_9allocatorIS1_EEE6secondB8ue170006Ev, symObjAddr: 0x3F50, symBinAddr: 0x100009954, symSize: 0x24 }
  - { offsetInCU: 0x9FF3, offset: 0x1AF51, size: 0x8, addend: 0x0, symName: __ZNKSt3__122__compressed_pair_elemINS_9allocatorI4NodoEELi1ELb1EE5__getB8ue170006Ev, symObjAddr: 0x3F74, symBinAddr: 0x100009978, symSize: 0x14 }
  - { offsetInCU: 0xA018, offset: 0x1AF76, size: 0x8, addend: 0x0, symName: __ZNSt3__114__split_bufferI4NodoRNS_9allocatorIS1_EEEC2EmmS4_, symObjAddr: 0x40C8, symBinAddr: 0x10000998C, symSize: 0xE0 }
  - { offsetInCU: 0xA08B, offset: 0x1AFE9, size: 0x8, addend: 0x0, symName: __ZNSt3__117__compressed_pairIP4NodoRNS_9allocatorIS1_EEEC1B8ue170006IDnS5_EEOT_OT0_, symObjAddr: 0x41A8, symBinAddr: 0x100009A6C, symSize: 0x3C }
  - { offsetInCU: 0xA0E2, offset: 0x1B040, size: 0x8, addend: 0x0, symName: __ZNSt3__114__split_bufferI4NodoRNS_9allocatorIS1_EEE7__allocB8ue170006Ev, symObjAddr: 0x4224, symBinAddr: 0x100009AE8, symSize: 0x28 }
  - { offsetInCU: 0xA107, offset: 0x1B065, size: 0x8, addend: 0x0, symName: __ZNSt3__114__split_bufferI4NodoRNS_9allocatorIS1_EEE9__end_capB8ue170006Ev, symObjAddr: 0x424C, symBinAddr: 0x100009B10, symSize: 0x28 }
  - { offsetInCU: 0xA12C, offset: 0x1B08A, size: 0x8, addend: 0x0, symName: __ZNSt3__117__compressed_pairIP4NodoRNS_9allocatorIS1_EEEC2B8ue170006IDnS5_EEOT_OT0_, symObjAddr: 0x4274, symBinAddr: 0x100009B38, symSize: 0x48 }
  - { offsetInCU: 0xA183, offset: 0x1B0E1, size: 0x8, addend: 0x0, symName: __ZNSt3__122__compressed_pair_elemIRNS_9allocatorI4NodoEELi1ELb0EEC2B8ue170006IS4_vEEOT_, symObjAddr: 0x42BC, symBinAddr: 0x100009B80, symSize: 0x20 }
  - { offsetInCU: 0xA1C4, offset: 0x1B122, size: 0x8, addend: 0x0, symName: __ZNSt3__19allocatorI4NodoE8allocateB8ue170006Em, symObjAddr: 0x42DC, symBinAddr: 0x100009BA0, symSize: 0x8C }
  - { offsetInCU: 0xA1F7, offset: 0x1B155, size: 0x8, addend: 0x0, symName: __ZNSt3__117__compressed_pairIP4NodoRNS_9allocatorIS1_EEE6secondB8ue170006Ev, symObjAddr: 0x43E8, symBinAddr: 0x100009C2C, symSize: 0x28 }
  - { offsetInCU: 0xA21C, offset: 0x1B17A, size: 0x8, addend: 0x0, symName: __ZNSt3__122__compressed_pair_elemIRNS_9allocatorI4NodoEELi1ELb0EE5__getB8ue170006Ev, symObjAddr: 0x4410, symBinAddr: 0x100009C54, symSize: 0x18 }
  - { offsetInCU: 0xA241, offset: 0x1B19F, size: 0x8, addend: 0x0, symName: __ZNSt3__117__compressed_pairIP4NodoRNS_9allocatorIS1_EEE5firstB8ue170006Ev, symObjAddr: 0x4428, symBinAddr: 0x100009C6C, symSize: 0x24 }
  - { offsetInCU: 0xA266, offset: 0x1B1C4, size: 0x8, addend: 0x0, symName: __ZNSt3__116reverse_iteratorIP4NodoEC1B8ue170006ES2_, symObjAddr: 0x4580, symBinAddr: 0x100009DC4, symSize: 0x34 }
  - { offsetInCU: 0xA29D, offset: 0x1B1FB, size: 0x8, addend: 0x0, symName: __ZNKSt3__116reverse_iteratorIP4NodoE4baseB8ue170006Ev, symObjAddr: 0x45B4, symBinAddr: 0x100009DF8, symSize: 0x18 }
  - { offsetInCU: 0xA2C2, offset: 0x1B220, size: 0x8, addend: 0x0, symName: __ZNKSt3__16vectorI4NodoNS_9allocatorIS1_EEE14__annotate_newB8ue170006Em, symObjAddr: 0x4608, symBinAddr: 0x100009E4C, symSize: 0xC8 }
  - { offsetInCU: 0xA2F6, offset: 0x1B254, size: 0x8, addend: 0x0, symName: __ZNSt3__129_AllocatorDestroyRangeReverseINS_9allocatorI4NodoEENS_16reverse_iteratorIPS2_EEEC1B8ue170006ERS3_RS6_S9_, symObjAddr: 0x471C, symBinAddr: 0x100009F60, symSize: 0x44 }
  - { offsetInCU: 0xA34C, offset: 0x1B2AA, size: 0x8, addend: 0x0, symName: __ZNSt3__116allocator_traitsINS_9allocatorI4NodoEEE9constructB8ue170006IS2_JS2_EvEEvRS3_PT_DpOT0_, symObjAddr: 0x47A8, symBinAddr: 0x100009FEC, symSize: 0x34 }
  - { offsetInCU: 0xA3A3, offset: 0x1B301, size: 0x8, addend: 0x0, symName: __ZNKSt3__116reverse_iteratorIP4NodoEdeB8ue170006Ev, symObjAddr: 0x4800, symBinAddr: 0x10000A044, symSize: 0x28 }
  - { offsetInCU: 0xA3D6, offset: 0x1B334, size: 0x8, addend: 0x0, symName: __ZNSt3__116reverse_iteratorIP4NodoEppB8ue170006Ev, symObjAddr: 0x4828, symBinAddr: 0x10000A06C, symSize: 0x20 }
  - { offsetInCU: 0xA3FB, offset: 0x1B359, size: 0x8, addend: 0x0, symName: __ZNSt3__128__exception_guard_exceptionsINS_29_AllocatorDestroyRangeReverseINS_9allocatorI4NodoEENS_16reverse_iteratorIPS3_EEEEE10__completeB8ue170006Ev, symObjAddr: 0x4848, symBinAddr: 0x10000A08C, symSize: 0x1C }
  - { offsetInCU: 0xA420, offset: 0x1B37E, size: 0x8, addend: 0x0, symName: __ZNSt3__128__exception_guard_exceptionsINS_29_AllocatorDestroyRangeReverseINS_9allocatorI4NodoEENS_16reverse_iteratorIPS3_EEEEED1B8ue170006Ev, symObjAddr: 0x4864, symBinAddr: 0x10000A0A8, symSize: 0x2C }
  - { offsetInCU: 0xA449, offset: 0x1B3A7, size: 0x8, addend: 0x0, symName: __ZNSt3__128__exception_guard_exceptionsINS_29_AllocatorDestroyRangeReverseINS_9allocatorI4NodoEENS_16reverse_iteratorIPS3_EEEEEC1B8ue170006ES8_, symObjAddr: 0x4890, symBinAddr: 0x10000A0D4, symSize: 0x34 }
  - { offsetInCU: 0xA481, offset: 0x1B3DF, size: 0x8, addend: 0x0, symName: __ZNSt3__128__exception_guard_exceptionsINS_29_AllocatorDestroyRangeReverseINS_9allocatorI4NodoEENS_16reverse_iteratorIPS3_EEEEEC2B8ue170006ES8_, symObjAddr: 0x48C4, symBinAddr: 0x10000A108, symSize: 0x30 }
  - { offsetInCU: 0xA4B9, offset: 0x1B417, size: 0x8, addend: 0x0, symName: __ZNSt3__129_AllocatorDestroyRangeReverseINS_9allocatorI4NodoEENS_16reverse_iteratorIPS2_EEEC2B8ue170006ERS3_RS6_S9_, symObjAddr: 0x48F4, symBinAddr: 0x10000A138, symSize: 0x38 }
  - { offsetInCU: 0xA50F, offset: 0x1B46D, size: 0x8, addend: 0x0, symName: __ZNSt3__19allocatorI4NodoE9constructB8ue170006IS1_JS1_EEEvPT_DpOT0_, symObjAddr: 0x492C, symBinAddr: 0x10000A170, symSize: 0x34 }
  - { offsetInCU: 0xA569, offset: 0x1B4C7, size: 0x8, addend: 0x0, symName: __ZNSt3__119__to_address_helperINS_16reverse_iteratorIP4NodoEEvE6__callB8ue170006ERKS4_, symObjAddr: 0x4960, symBinAddr: 0x10000A1A4, symSize: 0x4C }
  - { offsetInCU: 0xA58C, offset: 0x1B4EA, size: 0x8, addend: 0x0, symName: __ZNKSt3__116reverse_iteratorIP4NodoEptB8ue170006Ev, symObjAddr: 0x49AC, symBinAddr: 0x10000A1F0, symSize: 0x24 }
  - { offsetInCU: 0xA5B1, offset: 0x1B50F, size: 0x8, addend: 0x0, symName: __ZNSt3__128__exception_guard_exceptionsINS_29_AllocatorDestroyRangeReverseINS_9allocatorI4NodoEENS_16reverse_iteratorIPS3_EEEEED2B8ue170006Ev, symObjAddr: 0x49D0, symBinAddr: 0x10000A214, symSize: 0x48 }
  - { offsetInCU: 0xA5DA, offset: 0x1B538, size: 0x8, addend: 0x0, symName: __ZNKSt3__129_AllocatorDestroyRangeReverseINS_9allocatorI4NodoEENS_16reverse_iteratorIPS2_EEEclB8ue170006Ev, symObjAddr: 0x4A18, symBinAddr: 0x10000A25C, symSize: 0xB4 }
  - { offsetInCU: 0xA600, offset: 0x1B55E, size: 0x8, addend: 0x0, symName: __ZNSt3__116reverse_iteratorINS0_IP4NodoEEEC1B8ue170006ES3_, symObjAddr: 0x4B3C, symBinAddr: 0x10000A380, symSize: 0x3C }
  - { offsetInCU: 0xA637, offset: 0x1B595, size: 0x8, addend: 0x0, symName: __ZNSt3__116reverse_iteratorINS0_IP4NodoEEEppB8ue170006Ev, symObjAddr: 0x4BFC, symBinAddr: 0x10000A440, symSize: 0x30 }
  - { offsetInCU: 0xA65C, offset: 0x1B5BA, size: 0x8, addend: 0x0, symName: __ZNKSt3__116reverse_iteratorINS0_IP4NodoEEE4baseB8ue170006Ev, symObjAddr: 0x4C2C, symBinAddr: 0x10000A470, symSize: 0x24 }
  - { offsetInCU: 0xA686, offset: 0x1B5E4, size: 0x8, addend: 0x0, symName: __ZNSt3__119__to_address_helperINS_16reverse_iteratorINS1_IP4NodoEEEEvE6__callB8ue170006ERKS5_, symObjAddr: 0x4C50, symBinAddr: 0x10000A494, symSize: 0x4C }
  - { offsetInCU: 0xA6A9, offset: 0x1B607, size: 0x8, addend: 0x0, symName: __ZNKSt3__116reverse_iteratorINS0_IP4NodoEEEptB8ue170006Ev, symObjAddr: 0x4C9C, symBinAddr: 0x10000A4E0, symSize: 0x24 }
  - { offsetInCU: 0xA6CE, offset: 0x1B62C, size: 0x8, addend: 0x0, symName: __ZNKSt3__116reverse_iteratorINS0_IP4NodoEEEdeB8ue170006Ev, symObjAddr: 0x4CC0, symBinAddr: 0x10000A504, symSize: 0x34 }
  - { offsetInCU: 0xA701, offset: 0x1B65F, size: 0x8, addend: 0x0, symName: __ZNSt3__116reverse_iteratorIP4NodoEmmB8ue170006Ev, symObjAddr: 0x4CF4, symBinAddr: 0x10000A538, symSize: 0x20 }
  - { offsetInCU: 0xA726, offset: 0x1B684, size: 0x8, addend: 0x0, symName: __ZNSt3__116reverse_iteratorINS0_IP4NodoEEEC2B8ue170006ES3_, symObjAddr: 0x4D14, symBinAddr: 0x10000A558, symSize: 0x2C }
  - { offsetInCU: 0xA75D, offset: 0x1B6BB, size: 0x8, addend: 0x0, symName: __ZNSt3__116reverse_iteratorIP4NodoEC2B8ue170006ES2_, symObjAddr: 0x4D40, symBinAddr: 0x10000A584, symSize: 0x28 }
  - { offsetInCU: 0xA794, offset: 0x1B6F2, size: 0x8, addend: 0x0, symName: __ZNSt3__114__split_bufferI4NodoRNS_9allocatorIS1_EEED2Ev, symObjAddr: 0x4D68, symBinAddr: 0x10000A5AC, symSize: 0x80 }
  - { offsetInCU: 0xA7BF, offset: 0x1B71D, size: 0x8, addend: 0x0, symName: __ZNSt3__114__split_bufferI4NodoRNS_9allocatorIS1_EEE5clearB8ue170006Ev, symObjAddr: 0x4DE8, symBinAddr: 0x10000A62C, symSize: 0x28 }
  - { offsetInCU: 0xA7E4, offset: 0x1B742, size: 0x8, addend: 0x0, symName: __ZNKSt3__114__split_bufferI4NodoRNS_9allocatorIS1_EEE8capacityB8ue170006Ev, symObjAddr: 0x4E10, symBinAddr: 0x10000A654, symSize: 0x40 }
  - { offsetInCU: 0xA809, offset: 0x1B767, size: 0x8, addend: 0x0, symName: __ZNSt3__114__split_bufferI4NodoRNS_9allocatorIS1_EEE17__destruct_at_endB8ue170006EPS1_, symObjAddr: 0x4E50, symBinAddr: 0x10000A694, symSize: 0x2C }
  - { offsetInCU: 0xA83B, offset: 0x1B799, size: 0x8, addend: 0x0, symName: __ZNSt3__114__split_bufferI4NodoRNS_9allocatorIS1_EEE17__destruct_at_endB8ue170006EPS1_NS_17integral_constantIbLb0EEE, symObjAddr: 0x4E7C, symBinAddr: 0x10000A6C0, symSize: 0x94 }
  - { offsetInCU: 0xA87B, offset: 0x1B7D9, size: 0x8, addend: 0x0, symName: __ZNKSt3__114__split_bufferI4NodoRNS_9allocatorIS1_EEE9__end_capB8ue170006Ev, symObjAddr: 0x4F10, symBinAddr: 0x10000A754, symSize: 0x28 }
  - { offsetInCU: 0xA8A0, offset: 0x1B7FE, size: 0x8, addend: 0x0, symName: __ZNKSt3__117__compressed_pairIP4NodoRNS_9allocatorIS1_EEE5firstB8ue170006Ev, symObjAddr: 0x4F38, symBinAddr: 0x10000A77C, symSize: 0x24 }
  - { offsetInCU: 0xA8C5, offset: 0x1B823, size: 0x8, addend: 0x0, symName: __ZNSt3__16vectorI4NodoNS_9allocatorIS1_EEE11__make_iterB8ue170006EPS1_, symObjAddr: 0x4F5C, symBinAddr: 0x10000A7A0, symSize: 0x30 }
  - { offsetInCU: 0xA8F9, offset: 0x1B857, size: 0x8, addend: 0x0, symName: __ZNSt3__111__wrap_iterIP4NodoEC1B8ue170006ES2_, symObjAddr: 0x4F8C, symBinAddr: 0x10000A7D0, symSize: 0x34 }
  - { offsetInCU: 0xA930, offset: 0x1B88E, size: 0x8, addend: 0x0, symName: __ZNSt3__111__wrap_iterIP4NodoEC2B8ue170006ES2_, symObjAddr: 0x4FC0, symBinAddr: 0x10000A804, symSize: 0x20 }
  - { offsetInCU: 0xA967, offset: 0x1B8C5, size: 0x8, addend: 0x0, symName: __ZNSt3__118__unwrap_iter_implINS_11__wrap_iterIP4NodoEELb1EE8__rewrapB8ue170006ES4_S3_, symObjAddr: 0x50E8, symBinAddr: 0x10000A92C, symSize: 0x5C }
  - { offsetInCU: 0xA9A2, offset: 0x1B900, size: 0x8, addend: 0x0, symName: __ZNSt3__119__to_address_helperINS_11__wrap_iterIP4NodoEEvE6__callB8ue170006ERKS4_, symObjAddr: 0x5168, symBinAddr: 0x10000A9AC, symSize: 0x30 }
  - { offsetInCU: 0xA9C5, offset: 0x1B923, size: 0x8, addend: 0x0, symName: __ZNSt3__114pointer_traitsINS_11__wrap_iterIP4NodoEEE10to_addressB8ue170006ES4_, symObjAddr: 0x5198, symBinAddr: 0x10000A9DC, symSize: 0x2C }
  - { offsetInCU: 0xA9F2, offset: 0x1B950, size: 0x8, addend: 0x0, symName: __ZNKSt3__110__identityclB8ue170006IR4NodoEEOT_S5_, symObjAddr: 0x51F0, symBinAddr: 0x10000AA34, symSize: 0x18 }
  - { offsetInCU: 0xAA2E, offset: 0x1B98C, size: 0x8, addend: 0x0, symName: __ZNSt3__118__unwrap_iter_implINS_11__wrap_iterIP4NodoEELb1EE8__unwrapB8ue170006ES4_, symObjAddr: 0x5208, symBinAddr: 0x10000AA4C, symSize: 0x28 }
  - { offsetInCU: 0x2A03, offset: 0x1E442, size: 0x8, addend: 0x0, symName: __ZN4NodoC2Eiiiiii, symObjAddr: 0x0, symBinAddr: 0x10000AA74, symSize: 0xCC }
  - { offsetInCU: 0x2A82, offset: 0x1E4C1, size: 0x8, addend: 0x0, symName: __ZN4Nodo18set_coste_estimadoEiiii, symObjAddr: 0x118, symBinAddr: 0x10000AB40, symSize: 0x74 }
  - { offsetInCU: 0x2AE1, offset: 0x1E520, size: 0x8, addend: 0x0, symName: __ZN4Nodo19set_coste_acumuladoEii, symObjAddr: 0x18C, symBinAddr: 0x10000ABB4, symSize: 0x2C }
  - { offsetInCU: 0x2B22, offset: 0x1E561, size: 0x8, addend: 0x0, symName: __ZN4NodoC1Eiiiiii, symObjAddr: 0x1B8, symBinAddr: 0x10000ABE0, symSize: 0x5C }
  - { offsetInCU: 0x2BA1, offset: 0x1E5E0, size: 0x8, addend: 0x0, symName: __ZN4Nodo9printNodoEv, symObjAddr: 0x214, symBinAddr: 0x10000AC3C, symSize: 0xD0 }
...
